
build/bin/ns_app.elf:     file format elf32-littlearm


Disassembly of section .text:

08055000 <__Vectors>:
 8055000:	c0 4e 00 20 51 05 06 08 a5 02 06 08 ab 02 06 08     .N. Q...........
 8055010:	b1 02 06 08 b7 02 06 08 bd 02 06 08 c3 02 06 08     ................
	...
 805502c:	a7 f2 05 08 c9 02 06 08 00 00 00 00 f1 f1 05 08     ................
 805503c:	29 ed 05 08 cf 02 06 08 d5 02 06 08 db 02 06 08     )...............
 805504c:	e1 02 06 08 e7 02 06 08 ed 02 06 08 f3 02 06 08     ................
 805505c:	f9 02 06 08 ff 02 06 08 05 03 06 08 0b 03 06 08     ................
 805506c:	11 03 06 08 17 03 06 08 1d 03 06 08 23 03 06 08     ............#...
 805507c:	29 03 06 08 2f 03 06 08 35 03 06 08 3b 03 06 08     ).../...5...;...
 805508c:	41 03 06 08 47 03 06 08 4d 03 06 08 53 03 06 08     A...G...M...S...
 805509c:	59 03 06 08 5f 03 06 08 65 03 06 08 6b 03 06 08     Y..._...e...k...
 80550ac:	71 03 06 08 77 03 06 08 7d 03 06 08 83 03 06 08     q...w...}.......
 80550bc:	89 03 06 08 8f 03 06 08 95 03 06 08 9b 03 06 08     ................
 80550cc:	a1 03 06 08 a7 03 06 08 ad 03 06 08 b3 03 06 08     ................
 80550dc:	b9 03 06 08 bf 03 06 08 c5 03 06 08 cb 03 06 08     ................
 80550ec:	d1 03 06 08 d7 03 06 08 dd 03 06 08 e3 03 06 08     ................
 80550fc:	e9 03 06 08 ef 03 06 08 f5 03 06 08 fb 03 06 08     ................
 805510c:	01 04 06 08 07 04 06 08 0d 04 06 08 13 04 06 08     ................
 805511c:	19 04 06 08 1f 04 06 08 25 04 06 08 2b 04 06 08     ........%...+...
 805512c:	31 04 06 08 37 04 06 08 3d 04 06 08 43 04 06 08     1...7...=...C...
 805513c:	49 04 06 08 4f 04 06 08 55 04 06 08 5b 04 06 08     I...O...U...[...
 805514c:	61 04 06 08 67 04 06 08 6d 04 06 08 73 04 06 08     a...g...m...s...
 805515c:	79 04 06 08 7f 04 06 08 85 04 06 08 8b 04 06 08     y...............
 805516c:	91 04 06 08 97 04 06 08 00 00 00 00 9d 04 06 08     ................
 805517c:	00 00 00 00 a3 04 06 08 a9 04 06 08 af 04 06 08     ................
 805518c:	b5 04 06 08 bb 04 06 08 c1 04 06 08 c7 04 06 08     ................
 805519c:	cd 04 06 08 d3 04 06 08 d9 04 06 08 df 04 06 08     ................
 80551ac:	e5 04 06 08 eb 04 06 08 f1 04 06 08 f7 04 06 08     ................
 80551bc:	fd 04 06 08 03 05 06 08 09 05 06 08 0f 05 06 08     ................
 80551cc:	15 05 06 08 1b 05 06 08 21 05 06 08 27 05 06 08     ........!...'...
 80551dc:	2d 05 06 08 33 05 06 08 39 05 06 08 3f 05 06 08     -...3...9...?...
 80551ec:	45 05 06 08 4b 05 06 08                             E...K...

080551f4 <_init>:
 80551f4:	b5f8      	push	{r3, r4, r5, r6, r7, lr}
 80551f6:	bf00      	nop
 80551f8:	bcf8      	pop	{r3, r4, r5, r6, r7}
 80551fa:	bc08      	pop	{r3}
 80551fc:	469e      	mov	lr, r3
 80551fe:	4770      	bx	lr

08055200 <_fini>:
 8055200:	b5f8      	push	{r3, r4, r5, r6, r7, lr}
 8055202:	bf00      	nop
 8055204:	bcf8      	pop	{r3, r4, r5, r6, r7}
 8055206:	bc08      	pop	{r3}
 8055208:	469e      	mov	lr, r3
 805520a:	4770      	bx	lr

0805520c <__EH_FRAME_BEGIN__>:
 805520c:	0000 0000                                   ....

Disassembly of section .privileged_functions:

08055220 <xTaskCreate>:
 8055220:	b580      	push	{r7, lr}
 8055222:	b088      	sub	sp, #32
 8055224:	af02      	add	r7, sp, #8
 8055226:	60f8      	str	r0, [r7, #12]
 8055228:	60b9      	str	r1, [r7, #8]
 805522a:	603b      	str	r3, [r7, #0]
 805522c:	4613      	mov	r3, r2
 805522e:	80fb      	strh	r3, [r7, #6]
 8055230:	88fa      	ldrh	r2, [r7, #6]
 8055232:	6a7b      	ldr	r3, [r7, #36]	; 0x24
 8055234:	9301      	str	r3, [sp, #4]
 8055236:	6a3b      	ldr	r3, [r7, #32]
 8055238:	9300      	str	r3, [sp, #0]
 805523a:	683b      	ldr	r3, [r7, #0]
 805523c:	68b9      	ldr	r1, [r7, #8]
 805523e:	68f8      	ldr	r0, [r7, #12]
 8055240:	f002 ff9e 	bl	8058180 <prvCreateTask>
 8055244:	6138      	str	r0, [r7, #16]
 8055246:	693b      	ldr	r3, [r7, #16]
 8055248:	2b00      	cmp	r3, #0
 805524a:	d005      	beq.n	8055258 <xTaskCreate+0x38>
 805524c:	6938      	ldr	r0, [r7, #16]
 805524e:	f002 fea7 	bl	8057fa0 <prvAddNewTaskToReadyList>
 8055252:	2301      	movs	r3, #1
 8055254:	617b      	str	r3, [r7, #20]
 8055256:	e002      	b.n	805525e <xTaskCreate+0x3e>
 8055258:	f04f 33ff 	mov.w	r3, #4294967295	; 0xffffffff
 805525c:	617b      	str	r3, [r7, #20]
 805525e:	697b      	ldr	r3, [r7, #20]
 8055260:	4618      	mov	r0, r3
 8055262:	3718      	adds	r7, #24
 8055264:	46bd      	mov	sp, r7
 8055266:	bd80      	pop	{r7, pc}

08055268 <xTaskCreateRestricted>:
 8055268:	b580      	push	{r7, lr}
 805526a:	b084      	sub	sp, #16
 805526c:	af00      	add	r7, sp, #0
 805526e:	6078      	str	r0, [r7, #4]
 8055270:	6039      	str	r1, [r7, #0]
 8055272:	6839      	ldr	r1, [r7, #0]
 8055274:	6878      	ldr	r0, [r7, #4]
 8055276:	f002 ff37 	bl	80580e8 <prvCreateRestrictedTask>
 805527a:	60b8      	str	r0, [r7, #8]
 805527c:	68bb      	ldr	r3, [r7, #8]
 805527e:	2b00      	cmp	r3, #0
 8055280:	d005      	beq.n	805528e <xTaskCreateRestricted+0x26>
 8055282:	68b8      	ldr	r0, [r7, #8]
 8055284:	f002 fe8c 	bl	8057fa0 <prvAddNewTaskToReadyList>
 8055288:	2301      	movs	r3, #1
 805528a:	60fb      	str	r3, [r7, #12]
 805528c:	e002      	b.n	8055294 <xTaskCreateRestricted+0x2c>
 805528e:	f04f 33ff 	mov.w	r3, #4294967295	; 0xffffffff
 8055292:	60fb      	str	r3, [r7, #12]
 8055294:	68fb      	ldr	r3, [r7, #12]
 8055296:	4618      	mov	r0, r3
 8055298:	3710      	adds	r7, #16
 805529a:	46bd      	mov	sp, r7
 805529c:	bd80      	pop	{r7, pc}

0805529e <vTaskAllocateMPURegions>:
 805529e:	b590      	push	{r4, r7, lr}
 80552a0:	b085      	sub	sp, #20
 80552a2:	af00      	add	r7, sp, #0
 80552a4:	6078      	str	r0, [r7, #4]
 80552a6:	6039      	str	r1, [r7, #0]
 80552a8:	687b      	ldr	r3, [r7, #4]
 80552aa:	2b00      	cmp	r3, #0
 80552ac:	d102      	bne.n	80552b4 <vTaskAllocateMPURegions+0x16>
 80552ae:	4b08      	ldr	r3, [pc, #32]	; (80552d0 <vTaskAllocateMPURegions+0x32>)
 80552b0:	681b      	ldr	r3, [r3, #0]
 80552b2:	e000      	b.n	80552b6 <vTaskAllocateMPURegions+0x18>
 80552b4:	687b      	ldr	r3, [r7, #4]
 80552b6:	60fb      	str	r3, [r7, #12]
 80552b8:	68fb      	ldr	r3, [r7, #12]
 80552ba:	1d18      	adds	r0, r3, #4
 80552bc:	2300      	movs	r3, #0
 80552be:	2200      	movs	r2, #0
 80552c0:	6839      	ldr	r1, [r7, #0]
 80552c2:	4c04      	ldr	r4, [pc, #16]	; (80552d4 <vTaskAllocateMPURegions+0x36>)
 80552c4:	47a0      	blx	r4
 80552c6:	bf00      	nop
 80552c8:	3714      	adds	r7, #20
 80552ca:	46bd      	mov	sp, r7
 80552cc:	bd90      	pop	{r4, r7, pc}
 80552ce:	bf00      	nop
 80552d0:	20000100 	.word	0x20000100
 80552d4:	0805e801 	.word	0x0805e801

080552d8 <vTaskDelete>:
 80552d8:	b580      	push	{r7, lr}
 80552da:	b084      	sub	sp, #16
 80552dc:	af00      	add	r7, sp, #0
 80552de:	6078      	str	r0, [r7, #4]
 80552e0:	4b2c      	ldr	r3, [pc, #176]	; (8055394 <vTaskDelete+0xbc>)
 80552e2:	4798      	blx	r3
 80552e4:	687b      	ldr	r3, [r7, #4]
 80552e6:	2b00      	cmp	r3, #0
 80552e8:	d102      	bne.n	80552f0 <vTaskDelete+0x18>
 80552ea:	4b2b      	ldr	r3, [pc, #172]	; (8055398 <vTaskDelete+0xc0>)
 80552ec:	681b      	ldr	r3, [r3, #0]
 80552ee:	e000      	b.n	80552f2 <vTaskDelete+0x1a>
 80552f0:	687b      	ldr	r3, [r7, #4]
 80552f2:	60fb      	str	r3, [r7, #12]
 80552f4:	68fb      	ldr	r3, [r7, #12]
 80552f6:	f503 7325 	add.w	r3, r3, #660	; 0x294
 80552fa:	4618      	mov	r0, r3
 80552fc:	4b27      	ldr	r3, [pc, #156]	; (805539c <vTaskDelete+0xc4>)
 80552fe:	4798      	blx	r3
 8055300:	68fb      	ldr	r3, [r7, #12]
 8055302:	f8d3 32b8 	ldr.w	r3, [r3, #696]	; 0x2b8
 8055306:	2b00      	cmp	r3, #0
 8055308:	d005      	beq.n	8055316 <vTaskDelete+0x3e>
 805530a:	68fb      	ldr	r3, [r7, #12]
 805530c:	f503 732a 	add.w	r3, r3, #680	; 0x2a8
 8055310:	4618      	mov	r0, r3
 8055312:	4b22      	ldr	r3, [pc, #136]	; (805539c <vTaskDelete+0xc4>)
 8055314:	4798      	blx	r3
 8055316:	4b22      	ldr	r3, [pc, #136]	; (80553a0 <vTaskDelete+0xc8>)
 8055318:	681b      	ldr	r3, [r3, #0]
 805531a:	3301      	adds	r3, #1
 805531c:	4a20      	ldr	r2, [pc, #128]	; (80553a0 <vTaskDelete+0xc8>)
 805531e:	6013      	str	r3, [r2, #0]
 8055320:	4b1d      	ldr	r3, [pc, #116]	; (8055398 <vTaskDelete+0xc0>)
 8055322:	681b      	ldr	r3, [r3, #0]
 8055324:	68fa      	ldr	r2, [r7, #12]
 8055326:	429a      	cmp	r2, r3
 8055328:	d10c      	bne.n	8055344 <vTaskDelete+0x6c>
 805532a:	68fb      	ldr	r3, [r7, #12]
 805532c:	f503 7325 	add.w	r3, r3, #660	; 0x294
 8055330:	4619      	mov	r1, r3
 8055332:	481c      	ldr	r0, [pc, #112]	; (80553a4 <vTaskDelete+0xcc>)
 8055334:	4b1c      	ldr	r3, [pc, #112]	; (80553a8 <vTaskDelete+0xd0>)
 8055336:	4798      	blx	r3
 8055338:	4b1c      	ldr	r3, [pc, #112]	; (80553ac <vTaskDelete+0xd4>)
 805533a:	681b      	ldr	r3, [r3, #0]
 805533c:	3301      	adds	r3, #1
 805533e:	4a1b      	ldr	r2, [pc, #108]	; (80553ac <vTaskDelete+0xd4>)
 8055340:	6013      	str	r3, [r2, #0]
 8055342:	e006      	b.n	8055352 <vTaskDelete+0x7a>
 8055344:	4b1a      	ldr	r3, [pc, #104]	; (80553b0 <vTaskDelete+0xd8>)
 8055346:	681b      	ldr	r3, [r3, #0]
 8055348:	3b01      	subs	r3, #1
 805534a:	4a19      	ldr	r2, [pc, #100]	; (80553b0 <vTaskDelete+0xd8>)
 805534c:	6013      	str	r3, [r2, #0]
 805534e:	f002 fd5c 	bl	8057e0a <prvResetNextTaskUnblockTime>
 8055352:	4b18      	ldr	r3, [pc, #96]	; (80553b4 <vTaskDelete+0xdc>)
 8055354:	4798      	blx	r3
 8055356:	4b10      	ldr	r3, [pc, #64]	; (8055398 <vTaskDelete+0xc0>)
 8055358:	681b      	ldr	r3, [r3, #0]
 805535a:	68fa      	ldr	r2, [r7, #12]
 805535c:	429a      	cmp	r2, r3
 805535e:	d002      	beq.n	8055366 <vTaskDelete+0x8e>
 8055360:	68f8      	ldr	r0, [r7, #12]
 8055362:	f002 fc0b 	bl	8057b7c <prvDeleteTCB>
 8055366:	4b14      	ldr	r3, [pc, #80]	; (80553b8 <vTaskDelete+0xe0>)
 8055368:	681b      	ldr	r3, [r3, #0]
 805536a:	2b00      	cmp	r3, #0
 805536c:	d00d      	beq.n	805538a <vTaskDelete+0xb2>
 805536e:	4b0a      	ldr	r3, [pc, #40]	; (8055398 <vTaskDelete+0xc0>)
 8055370:	681b      	ldr	r3, [r3, #0]
 8055372:	68fa      	ldr	r2, [r7, #12]
 8055374:	429a      	cmp	r2, r3
 8055376:	d108      	bne.n	805538a <vTaskDelete+0xb2>
 8055378:	4b10      	ldr	r3, [pc, #64]	; (80553bc <vTaskDelete+0xe4>)
 805537a:	681b      	ldr	r3, [r3, #0]
 805537c:	2b00      	cmp	r3, #0
 805537e:	d002      	beq.n	8055386 <vTaskDelete+0xae>
 8055380:	4b0f      	ldr	r3, [pc, #60]	; (80553c0 <vTaskDelete+0xe8>)
 8055382:	4798      	blx	r3
 8055384:	e7fe      	b.n	8055384 <vTaskDelete+0xac>
 8055386:	4b0f      	ldr	r3, [pc, #60]	; (80553c4 <vTaskDelete+0xec>)
 8055388:	4798      	blx	r3
 805538a:	bf00      	nop
 805538c:	3710      	adds	r7, #16
 805538e:	46bd      	mov	sp, r7
 8055390:	bd80      	pop	{r7, pc}
 8055392:	bf00      	nop
 8055394:	0805ecc5 	.word	0x0805ecc5
 8055398:	20000100 	.word	0x20000100
 805539c:	0805c449 	.word	0x0805c449
 80553a0:	200002d0 	.word	0x200002d0
 80553a4:	20000288 	.word	0x20000288
 80553a8:	0805c403 	.word	0x0805c403
 80553ac:	2000029c 	.word	0x2000029c
 80553b0:	200002b4 	.word	0x200002b4
 80553b4:	0805eced 	.word	0x0805eced
 80553b8:	200002c0 	.word	0x200002c0
 80553bc:	200002dc 	.word	0x200002dc
 80553c0:	0805f1c7 	.word	0x0805f1c7
 80553c4:	0805eca5 	.word	0x0805eca5

080553c8 <vTaskDelay>:
 80553c8:	b580      	push	{r7, lr}
 80553ca:	b084      	sub	sp, #16
 80553cc:	af00      	add	r7, sp, #0
 80553ce:	6078      	str	r0, [r7, #4]
 80553d0:	2300      	movs	r3, #0
 80553d2:	60fb      	str	r3, [r7, #12]
 80553d4:	687b      	ldr	r3, [r7, #4]
 80553d6:	2b00      	cmp	r3, #0
 80553d8:	d00f      	beq.n	80553fa <vTaskDelay+0x32>
 80553da:	f000 fcef 	bl	8055dbc <vTaskSuspendAll>
 80553de:	4b0b      	ldr	r3, [pc, #44]	; (805540c <vTaskDelay+0x44>)
 80553e0:	681b      	ldr	r3, [r3, #0]
 80553e2:	2b01      	cmp	r3, #1
 80553e4:	d002      	beq.n	80553ec <vTaskDelay+0x24>
 80553e6:	4b0a      	ldr	r3, [pc, #40]	; (8055410 <vTaskDelay+0x48>)
 80553e8:	4798      	blx	r3
 80553ea:	e7fe      	b.n	80553ea <vTaskDelay+0x22>
 80553ec:	2100      	movs	r1, #0
 80553ee:	6878      	ldr	r0, [r7, #4]
 80553f0:	f002 fc24 	bl	8057c3c <prvAddCurrentTaskToDelayedList>
 80553f4:	f000 fcf0 	bl	8055dd8 <xTaskResumeAll>
 80553f8:	60f8      	str	r0, [r7, #12]
 80553fa:	68fb      	ldr	r3, [r7, #12]
 80553fc:	2b00      	cmp	r3, #0
 80553fe:	d101      	bne.n	8055404 <vTaskDelay+0x3c>
 8055400:	4b04      	ldr	r3, [pc, #16]	; (8055414 <vTaskDelay+0x4c>)
 8055402:	4798      	blx	r3
 8055404:	bf00      	nop
 8055406:	3710      	adds	r7, #16
 8055408:	46bd      	mov	sp, r7
 805540a:	bd80      	pop	{r7, pc}
 805540c:	200002dc 	.word	0x200002dc
 8055410:	0805f1c7 	.word	0x0805f1c7
 8055414:	0805eca5 	.word	0x0805eca5

08055418 <xTaskDelayUntil>:
 8055418:	b580      	push	{r7, lr}
 805541a:	b086      	sub	sp, #24
 805541c:	af00      	add	r7, sp, #0
 805541e:	6078      	str	r0, [r7, #4]
 8055420:	6039      	str	r1, [r7, #0]
 8055422:	2300      	movs	r3, #0
 8055424:	617b      	str	r3, [r7, #20]
 8055426:	687b      	ldr	r3, [r7, #4]
 8055428:	2b00      	cmp	r3, #0
 805542a:	d102      	bne.n	8055432 <xTaskDelayUntil+0x1a>
 805542c:	4b27      	ldr	r3, [pc, #156]	; (80554cc <xTaskDelayUntil+0xb4>)
 805542e:	4798      	blx	r3
 8055430:	e7fe      	b.n	8055430 <xTaskDelayUntil+0x18>
 8055432:	683b      	ldr	r3, [r7, #0]
 8055434:	2b00      	cmp	r3, #0
 8055436:	d102      	bne.n	805543e <xTaskDelayUntil+0x26>
 8055438:	4b24      	ldr	r3, [pc, #144]	; (80554cc <xTaskDelayUntil+0xb4>)
 805543a:	4798      	blx	r3
 805543c:	e7fe      	b.n	805543c <xTaskDelayUntil+0x24>
 805543e:	f000 fcbd 	bl	8055dbc <vTaskSuspendAll>
 8055442:	4b23      	ldr	r3, [pc, #140]	; (80554d0 <xTaskDelayUntil+0xb8>)
 8055444:	681b      	ldr	r3, [r3, #0]
 8055446:	613b      	str	r3, [r7, #16]
 8055448:	4b22      	ldr	r3, [pc, #136]	; (80554d4 <xTaskDelayUntil+0xbc>)
 805544a:	681b      	ldr	r3, [r3, #0]
 805544c:	2b01      	cmp	r3, #1
 805544e:	d002      	beq.n	8055456 <xTaskDelayUntil+0x3e>
 8055450:	4b1e      	ldr	r3, [pc, #120]	; (80554cc <xTaskDelayUntil+0xb4>)
 8055452:	4798      	blx	r3
 8055454:	e7fe      	b.n	8055454 <xTaskDelayUntil+0x3c>
 8055456:	687b      	ldr	r3, [r7, #4]
 8055458:	681b      	ldr	r3, [r3, #0]
 805545a:	683a      	ldr	r2, [r7, #0]
 805545c:	4413      	add	r3, r2
 805545e:	60fb      	str	r3, [r7, #12]
 8055460:	687b      	ldr	r3, [r7, #4]
 8055462:	681b      	ldr	r3, [r3, #0]
 8055464:	693a      	ldr	r2, [r7, #16]
 8055466:	429a      	cmp	r2, r3
 8055468:	d20b      	bcs.n	8055482 <xTaskDelayUntil+0x6a>
 805546a:	687b      	ldr	r3, [r7, #4]
 805546c:	681b      	ldr	r3, [r3, #0]
 805546e:	68fa      	ldr	r2, [r7, #12]
 8055470:	429a      	cmp	r2, r3
 8055472:	d211      	bcs.n	8055498 <xTaskDelayUntil+0x80>
 8055474:	68fa      	ldr	r2, [r7, #12]
 8055476:	693b      	ldr	r3, [r7, #16]
 8055478:	429a      	cmp	r2, r3
 805547a:	d90d      	bls.n	8055498 <xTaskDelayUntil+0x80>
 805547c:	2301      	movs	r3, #1
 805547e:	617b      	str	r3, [r7, #20]
 8055480:	e00a      	b.n	8055498 <xTaskDelayUntil+0x80>
 8055482:	687b      	ldr	r3, [r7, #4]
 8055484:	681b      	ldr	r3, [r3, #0]
 8055486:	68fa      	ldr	r2, [r7, #12]
 8055488:	429a      	cmp	r2, r3
 805548a:	d303      	bcc.n	8055494 <xTaskDelayUntil+0x7c>
 805548c:	68fa      	ldr	r2, [r7, #12]
 805548e:	693b      	ldr	r3, [r7, #16]
 8055490:	429a      	cmp	r2, r3
 8055492:	d901      	bls.n	8055498 <xTaskDelayUntil+0x80>
 8055494:	2301      	movs	r3, #1
 8055496:	617b      	str	r3, [r7, #20]
 8055498:	687b      	ldr	r3, [r7, #4]
 805549a:	68fa      	ldr	r2, [r7, #12]
 805549c:	601a      	str	r2, [r3, #0]
 805549e:	697b      	ldr	r3, [r7, #20]
 80554a0:	2b00      	cmp	r3, #0
 80554a2:	d006      	beq.n	80554b2 <xTaskDelayUntil+0x9a>
 80554a4:	68fa      	ldr	r2, [r7, #12]
 80554a6:	693b      	ldr	r3, [r7, #16]
 80554a8:	1ad3      	subs	r3, r2, r3
 80554aa:	2100      	movs	r1, #0
 80554ac:	4618      	mov	r0, r3
 80554ae:	f002 fbc5 	bl	8057c3c <prvAddCurrentTaskToDelayedList>
 80554b2:	f000 fc91 	bl	8055dd8 <xTaskResumeAll>
 80554b6:	60b8      	str	r0, [r7, #8]
 80554b8:	68bb      	ldr	r3, [r7, #8]
 80554ba:	2b00      	cmp	r3, #0
 80554bc:	d101      	bne.n	80554c2 <xTaskDelayUntil+0xaa>
 80554be:	4b06      	ldr	r3, [pc, #24]	; (80554d8 <xTaskDelayUntil+0xc0>)
 80554c0:	4798      	blx	r3
 80554c2:	697b      	ldr	r3, [r7, #20]
 80554c4:	4618      	mov	r0, r3
 80554c6:	3718      	adds	r7, #24
 80554c8:	46bd      	mov	sp, r7
 80554ca:	bd80      	pop	{r7, pc}
 80554cc:	0805f1c7 	.word	0x0805f1c7
 80554d0:	200002b8 	.word	0x200002b8
 80554d4:	200002dc 	.word	0x200002dc
 80554d8:	0805eca5 	.word	0x0805eca5

080554dc <uxTaskPriorityGet>:
 80554dc:	b580      	push	{r7, lr}
 80554de:	b084      	sub	sp, #16
 80554e0:	af00      	add	r7, sp, #0
 80554e2:	6078      	str	r0, [r7, #4]
 80554e4:	4b0a      	ldr	r3, [pc, #40]	; (8055510 <uxTaskPriorityGet+0x34>)
 80554e6:	4798      	blx	r3
 80554e8:	687b      	ldr	r3, [r7, #4]
 80554ea:	2b00      	cmp	r3, #0
 80554ec:	d102      	bne.n	80554f4 <uxTaskPriorityGet+0x18>
 80554ee:	4b09      	ldr	r3, [pc, #36]	; (8055514 <uxTaskPriorityGet+0x38>)
 80554f0:	681b      	ldr	r3, [r3, #0]
 80554f2:	e000      	b.n	80554f6 <uxTaskPriorityGet+0x1a>
 80554f4:	687b      	ldr	r3, [r7, #4]
 80554f6:	60fb      	str	r3, [r7, #12]
 80554f8:	68fb      	ldr	r3, [r7, #12]
 80554fa:	f8d3 32bc 	ldr.w	r3, [r3, #700]	; 0x2bc
 80554fe:	60bb      	str	r3, [r7, #8]
 8055500:	4b05      	ldr	r3, [pc, #20]	; (8055518 <uxTaskPriorityGet+0x3c>)
 8055502:	4798      	blx	r3
 8055504:	68bb      	ldr	r3, [r7, #8]
 8055506:	4618      	mov	r0, r3
 8055508:	3710      	adds	r7, #16
 805550a:	46bd      	mov	sp, r7
 805550c:	bd80      	pop	{r7, pc}
 805550e:	bf00      	nop
 8055510:	0805ecc5 	.word	0x0805ecc5
 8055514:	20000100 	.word	0x20000100
 8055518:	0805eced 	.word	0x0805eced

0805551c <uxTaskPriorityGetFromISR>:
 805551c:	b580      	push	{r7, lr}
 805551e:	b086      	sub	sp, #24
 8055520:	af00      	add	r7, sp, #0
 8055522:	6078      	str	r0, [r7, #4]
 8055524:	4b0c      	ldr	r3, [pc, #48]	; (8055558 <uxTaskPriorityGetFromISR+0x3c>)
 8055526:	4798      	blx	r3
 8055528:	4b0c      	ldr	r3, [pc, #48]	; (805555c <uxTaskPriorityGetFromISR+0x40>)
 805552a:	4798      	blx	r3
 805552c:	6178      	str	r0, [r7, #20]
 805552e:	687b      	ldr	r3, [r7, #4]
 8055530:	2b00      	cmp	r3, #0
 8055532:	d102      	bne.n	805553a <uxTaskPriorityGetFromISR+0x1e>
 8055534:	4b0a      	ldr	r3, [pc, #40]	; (8055560 <uxTaskPriorityGetFromISR+0x44>)
 8055536:	681b      	ldr	r3, [r3, #0]
 8055538:	e000      	b.n	805553c <uxTaskPriorityGetFromISR+0x20>
 805553a:	687b      	ldr	r3, [r7, #4]
 805553c:	613b      	str	r3, [r7, #16]
 805553e:	693b      	ldr	r3, [r7, #16]
 8055540:	f8d3 32bc 	ldr.w	r3, [r3, #700]	; 0x2bc
 8055544:	60fb      	str	r3, [r7, #12]
 8055546:	6978      	ldr	r0, [r7, #20]
 8055548:	4b06      	ldr	r3, [pc, #24]	; (8055564 <uxTaskPriorityGetFromISR+0x48>)
 805554a:	4798      	blx	r3
 805554c:	68fb      	ldr	r3, [r7, #12]
 805554e:	4618      	mov	r0, r3
 8055550:	3718      	adds	r7, #24
 8055552:	46bd      	mov	sp, r7
 8055554:	bd80      	pop	{r7, pc}
 8055556:	bf00      	nop
 8055558:	080607fd 	.word	0x080607fd
 805555c:	0805f1c7 	.word	0x0805f1c7
 8055560:	20000100 	.word	0x20000100
 8055564:	0805f1e1 	.word	0x0805f1e1

08055568 <uxTaskBasePriorityGet>:
 8055568:	b580      	push	{r7, lr}
 805556a:	b084      	sub	sp, #16
 805556c:	af00      	add	r7, sp, #0
 805556e:	6078      	str	r0, [r7, #4]
 8055570:	4b0a      	ldr	r3, [pc, #40]	; (805559c <uxTaskBasePriorityGet+0x34>)
 8055572:	4798      	blx	r3
 8055574:	687b      	ldr	r3, [r7, #4]
 8055576:	2b00      	cmp	r3, #0
 8055578:	d102      	bne.n	8055580 <uxTaskBasePriorityGet+0x18>
 805557a:	4b09      	ldr	r3, [pc, #36]	; (80555a0 <uxTaskBasePriorityGet+0x38>)
 805557c:	681b      	ldr	r3, [r3, #0]
 805557e:	e000      	b.n	8055582 <uxTaskBasePriorityGet+0x1a>
 8055580:	687b      	ldr	r3, [r7, #4]
 8055582:	60fb      	str	r3, [r7, #12]
 8055584:	68fb      	ldr	r3, [r7, #12]
 8055586:	f8d3 32dc 	ldr.w	r3, [r3, #732]	; 0x2dc
 805558a:	60bb      	str	r3, [r7, #8]
 805558c:	4b05      	ldr	r3, [pc, #20]	; (80555a4 <uxTaskBasePriorityGet+0x3c>)
 805558e:	4798      	blx	r3
 8055590:	68bb      	ldr	r3, [r7, #8]
 8055592:	4618      	mov	r0, r3
 8055594:	3710      	adds	r7, #16
 8055596:	46bd      	mov	sp, r7
 8055598:	bd80      	pop	{r7, pc}
 805559a:	bf00      	nop
 805559c:	0805ecc5 	.word	0x0805ecc5
 80555a0:	20000100 	.word	0x20000100
 80555a4:	0805eced 	.word	0x0805eced

080555a8 <uxTaskBasePriorityGetFromISR>:
 80555a8:	b580      	push	{r7, lr}
 80555aa:	b086      	sub	sp, #24
 80555ac:	af00      	add	r7, sp, #0
 80555ae:	6078      	str	r0, [r7, #4]
 80555b0:	4b0c      	ldr	r3, [pc, #48]	; (80555e4 <uxTaskBasePriorityGetFromISR+0x3c>)
 80555b2:	4798      	blx	r3
 80555b4:	4b0c      	ldr	r3, [pc, #48]	; (80555e8 <uxTaskBasePriorityGetFromISR+0x40>)
 80555b6:	4798      	blx	r3
 80555b8:	6178      	str	r0, [r7, #20]
 80555ba:	687b      	ldr	r3, [r7, #4]
 80555bc:	2b00      	cmp	r3, #0
 80555be:	d102      	bne.n	80555c6 <uxTaskBasePriorityGetFromISR+0x1e>
 80555c0:	4b0a      	ldr	r3, [pc, #40]	; (80555ec <uxTaskBasePriorityGetFromISR+0x44>)
 80555c2:	681b      	ldr	r3, [r3, #0]
 80555c4:	e000      	b.n	80555c8 <uxTaskBasePriorityGetFromISR+0x20>
 80555c6:	687b      	ldr	r3, [r7, #4]
 80555c8:	613b      	str	r3, [r7, #16]
 80555ca:	693b      	ldr	r3, [r7, #16]
 80555cc:	f8d3 32dc 	ldr.w	r3, [r3, #732]	; 0x2dc
 80555d0:	60fb      	str	r3, [r7, #12]
 80555d2:	6978      	ldr	r0, [r7, #20]
 80555d4:	4b06      	ldr	r3, [pc, #24]	; (80555f0 <uxTaskBasePriorityGetFromISR+0x48>)
 80555d6:	4798      	blx	r3
 80555d8:	68fb      	ldr	r3, [r7, #12]
 80555da:	4618      	mov	r0, r3
 80555dc:	3718      	adds	r7, #24
 80555de:	46bd      	mov	sp, r7
 80555e0:	bd80      	pop	{r7, pc}
 80555e2:	bf00      	nop
 80555e4:	080607fd 	.word	0x080607fd
 80555e8:	0805f1c7 	.word	0x0805f1c7
 80555ec:	20000100 	.word	0x20000100
 80555f0:	0805f1e1 	.word	0x0805f1e1

080555f4 <eTaskGetState>:
 80555f4:	b580      	push	{r7, lr}
 80555f6:	b08a      	sub	sp, #40	; 0x28
 80555f8:	af00      	add	r7, sp, #0
 80555fa:	6078      	str	r0, [r7, #4]
 80555fc:	687b      	ldr	r3, [r7, #4]
 80555fe:	61fb      	str	r3, [r7, #28]
 8055600:	69fb      	ldr	r3, [r7, #28]
 8055602:	2b00      	cmp	r3, #0
 8055604:	d102      	bne.n	805560c <eTaskGetState+0x18>
 8055606:	4b36      	ldr	r3, [pc, #216]	; (80556e0 <eTaskGetState+0xec>)
 8055608:	4798      	blx	r3
 805560a:	e7fe      	b.n	805560a <eTaskGetState+0x16>
 805560c:	4b35      	ldr	r3, [pc, #212]	; (80556e4 <eTaskGetState+0xf0>)
 805560e:	681b      	ldr	r3, [r3, #0]
 8055610:	69fa      	ldr	r2, [r7, #28]
 8055612:	429a      	cmp	r2, r3
 8055614:	d103      	bne.n	805561e <eTaskGetState+0x2a>
 8055616:	2300      	movs	r3, #0
 8055618:	f887 3027 	strb.w	r3, [r7, #39]	; 0x27
 805561c:	e05a      	b.n	80556d4 <eTaskGetState+0xe0>
 805561e:	4b32      	ldr	r3, [pc, #200]	; (80556e8 <eTaskGetState+0xf4>)
 8055620:	4798      	blx	r3
 8055622:	69fb      	ldr	r3, [r7, #28]
 8055624:	f8d3 32a4 	ldr.w	r3, [r3, #676]	; 0x2a4
 8055628:	61bb      	str	r3, [r7, #24]
 805562a:	69fb      	ldr	r3, [r7, #28]
 805562c:	f8d3 32b8 	ldr.w	r3, [r3, #696]	; 0x2b8
 8055630:	617b      	str	r3, [r7, #20]
 8055632:	4b2e      	ldr	r3, [pc, #184]	; (80556ec <eTaskGetState+0xf8>)
 8055634:	681b      	ldr	r3, [r3, #0]
 8055636:	613b      	str	r3, [r7, #16]
 8055638:	4b2d      	ldr	r3, [pc, #180]	; (80556f0 <eTaskGetState+0xfc>)
 805563a:	681b      	ldr	r3, [r3, #0]
 805563c:	60fb      	str	r3, [r7, #12]
 805563e:	4b2d      	ldr	r3, [pc, #180]	; (80556f4 <eTaskGetState+0x100>)
 8055640:	4798      	blx	r3
 8055642:	697b      	ldr	r3, [r7, #20]
 8055644:	4a2c      	ldr	r2, [pc, #176]	; (80556f8 <eTaskGetState+0x104>)
 8055646:	4293      	cmp	r3, r2
 8055648:	d103      	bne.n	8055652 <eTaskGetState+0x5e>
 805564a:	2301      	movs	r3, #1
 805564c:	f887 3027 	strb.w	r3, [r7, #39]	; 0x27
 8055650:	e040      	b.n	80556d4 <eTaskGetState+0xe0>
 8055652:	69ba      	ldr	r2, [r7, #24]
 8055654:	693b      	ldr	r3, [r7, #16]
 8055656:	429a      	cmp	r2, r3
 8055658:	d003      	beq.n	8055662 <eTaskGetState+0x6e>
 805565a:	69ba      	ldr	r2, [r7, #24]
 805565c:	68fb      	ldr	r3, [r7, #12]
 805565e:	429a      	cmp	r2, r3
 8055660:	d103      	bne.n	805566a <eTaskGetState+0x76>
 8055662:	2302      	movs	r3, #2
 8055664:	f887 3027 	strb.w	r3, [r7, #39]	; 0x27
 8055668:	e034      	b.n	80556d4 <eTaskGetState+0xe0>
 805566a:	69bb      	ldr	r3, [r7, #24]
 805566c:	4a23      	ldr	r2, [pc, #140]	; (80556fc <eTaskGetState+0x108>)
 805566e:	4293      	cmp	r3, r2
 8055670:	d122      	bne.n	80556b8 <eTaskGetState+0xc4>
 8055672:	69fb      	ldr	r3, [r7, #28]
 8055674:	f8d3 32b8 	ldr.w	r3, [r3, #696]	; 0x2b8
 8055678:	2b00      	cmp	r3, #0
 805567a:	d119      	bne.n	80556b0 <eTaskGetState+0xbc>
 805567c:	2303      	movs	r3, #3
 805567e:	f887 3027 	strb.w	r3, [r7, #39]	; 0x27
 8055682:	2300      	movs	r3, #0
 8055684:	623b      	str	r3, [r7, #32]
 8055686:	e00f      	b.n	80556a8 <eTaskGetState+0xb4>
 8055688:	69fa      	ldr	r2, [r7, #28]
 805568a:	6a3b      	ldr	r3, [r7, #32]
 805568c:	4413      	add	r3, r2
 805568e:	f503 733a 	add.w	r3, r3, #744	; 0x2e8
 8055692:	781b      	ldrb	r3, [r3, #0]
 8055694:	b2db      	uxtb	r3, r3
 8055696:	2b01      	cmp	r3, #1
 8055698:	d103      	bne.n	80556a2 <eTaskGetState+0xae>
 805569a:	2302      	movs	r3, #2
 805569c:	f887 3027 	strb.w	r3, [r7, #39]	; 0x27
 80556a0:	e018      	b.n	80556d4 <eTaskGetState+0xe0>
 80556a2:	6a3b      	ldr	r3, [r7, #32]
 80556a4:	3301      	adds	r3, #1
 80556a6:	623b      	str	r3, [r7, #32]
 80556a8:	6a3b      	ldr	r3, [r7, #32]
 80556aa:	2b00      	cmp	r3, #0
 80556ac:	ddec      	ble.n	8055688 <eTaskGetState+0x94>
 80556ae:	e011      	b.n	80556d4 <eTaskGetState+0xe0>
 80556b0:	2302      	movs	r3, #2
 80556b2:	f887 3027 	strb.w	r3, [r7, #39]	; 0x27
 80556b6:	e00d      	b.n	80556d4 <eTaskGetState+0xe0>
 80556b8:	69bb      	ldr	r3, [r7, #24]
 80556ba:	4a11      	ldr	r2, [pc, #68]	; (8055700 <eTaskGetState+0x10c>)
 80556bc:	4293      	cmp	r3, r2
 80556be:	d002      	beq.n	80556c6 <eTaskGetState+0xd2>
 80556c0:	69bb      	ldr	r3, [r7, #24]
 80556c2:	2b00      	cmp	r3, #0
 80556c4:	d103      	bne.n	80556ce <eTaskGetState+0xda>
 80556c6:	2304      	movs	r3, #4
 80556c8:	f887 3027 	strb.w	r3, [r7, #39]	; 0x27
 80556cc:	e002      	b.n	80556d4 <eTaskGetState+0xe0>
 80556ce:	2301      	movs	r3, #1
 80556d0:	f887 3027 	strb.w	r3, [r7, #39]	; 0x27
 80556d4:	f897 3027 	ldrb.w	r3, [r7, #39]	; 0x27
 80556d8:	4618      	mov	r0, r3
 80556da:	3728      	adds	r7, #40	; 0x28
 80556dc:	46bd      	mov	sp, r7
 80556de:	bd80      	pop	{r7, pc}
 80556e0:	0805f1c7 	.word	0x0805f1c7
 80556e4:	20000100 	.word	0x20000100
 80556e8:	0805ecc5 	.word	0x0805ecc5
 80556ec:	2000026c 	.word	0x2000026c
 80556f0:	20000270 	.word	0x20000270
 80556f4:	0805eced 	.word	0x0805eced
 80556f8:	20000274 	.word	0x20000274
 80556fc:	200002a0 	.word	0x200002a0
 8055700:	20000288 	.word	0x20000288

08055704 <vTaskGetInfo>:
 8055704:	b580      	push	{r7, lr}
 8055706:	b086      	sub	sp, #24
 8055708:	af00      	add	r7, sp, #0
 805570a:	60f8      	str	r0, [r7, #12]
 805570c:	60b9      	str	r1, [r7, #8]
 805570e:	607a      	str	r2, [r7, #4]
 8055710:	70fb      	strb	r3, [r7, #3]
 8055712:	68fb      	ldr	r3, [r7, #12]
 8055714:	2b00      	cmp	r3, #0
 8055716:	d102      	bne.n	805571e <vTaskGetInfo+0x1a>
 8055718:	4b35      	ldr	r3, [pc, #212]	; (80557f0 <vTaskGetInfo+0xec>)
 805571a:	681b      	ldr	r3, [r3, #0]
 805571c:	e000      	b.n	8055720 <vTaskGetInfo+0x1c>
 805571e:	68fb      	ldr	r3, [r7, #12]
 8055720:	617b      	str	r3, [r7, #20]
 8055722:	68bb      	ldr	r3, [r7, #8]
 8055724:	697a      	ldr	r2, [r7, #20]
 8055726:	601a      	str	r2, [r3, #0]
 8055728:	697b      	ldr	r3, [r7, #20]
 805572a:	f503 7231 	add.w	r2, r3, #708	; 0x2c4
 805572e:	68bb      	ldr	r3, [r7, #8]
 8055730:	605a      	str	r2, [r3, #4]
 8055732:	697b      	ldr	r3, [r7, #20]
 8055734:	f8d3 22bc 	ldr.w	r2, [r3, #700]	; 0x2bc
 8055738:	68bb      	ldr	r3, [r7, #8]
 805573a:	611a      	str	r2, [r3, #16]
 805573c:	697b      	ldr	r3, [r7, #20]
 805573e:	f8d3 22c0 	ldr.w	r2, [r3, #704]	; 0x2c0
 8055742:	68bb      	ldr	r3, [r7, #8]
 8055744:	61da      	str	r2, [r3, #28]
 8055746:	697b      	ldr	r3, [r7, #20]
 8055748:	f8d3 22d4 	ldr.w	r2, [r3, #724]	; 0x2d4
 805574c:	68bb      	ldr	r3, [r7, #8]
 805574e:	609a      	str	r2, [r3, #8]
 8055750:	697b      	ldr	r3, [r7, #20]
 8055752:	f8d3 22dc 	ldr.w	r2, [r3, #732]	; 0x2dc
 8055756:	68bb      	ldr	r3, [r7, #8]
 8055758:	615a      	str	r2, [r3, #20]
 805575a:	68bb      	ldr	r3, [r7, #8]
 805575c:	2200      	movs	r2, #0
 805575e:	619a      	str	r2, [r3, #24]
 8055760:	78fb      	ldrb	r3, [r7, #3]
 8055762:	2b05      	cmp	r3, #5
 8055764:	d028      	beq.n	80557b8 <vTaskGetInfo+0xb4>
 8055766:	4b22      	ldr	r3, [pc, #136]	; (80557f0 <vTaskGetInfo+0xec>)
 8055768:	681b      	ldr	r3, [r3, #0]
 805576a:	697a      	ldr	r2, [r7, #20]
 805576c:	429a      	cmp	r2, r3
 805576e:	d103      	bne.n	8055778 <vTaskGetInfo+0x74>
 8055770:	68bb      	ldr	r3, [r7, #8]
 8055772:	2200      	movs	r2, #0
 8055774:	731a      	strb	r2, [r3, #12]
 8055776:	e026      	b.n	80557c6 <vTaskGetInfo+0xc2>
 8055778:	68bb      	ldr	r3, [r7, #8]
 805577a:	78fa      	ldrb	r2, [r7, #3]
 805577c:	731a      	strb	r2, [r3, #12]
 805577e:	78fb      	ldrb	r3, [r7, #3]
 8055780:	2b03      	cmp	r3, #3
 8055782:	d10b      	bne.n	805579c <vTaskGetInfo+0x98>
 8055784:	f000 fb1a 	bl	8055dbc <vTaskSuspendAll>
 8055788:	697b      	ldr	r3, [r7, #20]
 805578a:	f8d3 32b8 	ldr.w	r3, [r3, #696]	; 0x2b8
 805578e:	2b00      	cmp	r3, #0
 8055790:	d002      	beq.n	8055798 <vTaskGetInfo+0x94>
 8055792:	68bb      	ldr	r3, [r7, #8]
 8055794:	2202      	movs	r2, #2
 8055796:	731a      	strb	r2, [r3, #12]
 8055798:	f000 fb1e 	bl	8055dd8 <xTaskResumeAll>
 805579c:	4b15      	ldr	r3, [pc, #84]	; (80557f4 <vTaskGetInfo+0xf0>)
 805579e:	4798      	blx	r3
 80557a0:	697b      	ldr	r3, [r7, #20]
 80557a2:	f8d3 32b8 	ldr.w	r3, [r3, #696]	; 0x2b8
 80557a6:	4a14      	ldr	r2, [pc, #80]	; (80557f8 <vTaskGetInfo+0xf4>)
 80557a8:	4293      	cmp	r3, r2
 80557aa:	d102      	bne.n	80557b2 <vTaskGetInfo+0xae>
 80557ac:	68bb      	ldr	r3, [r7, #8]
 80557ae:	2201      	movs	r2, #1
 80557b0:	731a      	strb	r2, [r3, #12]
 80557b2:	4b12      	ldr	r3, [pc, #72]	; (80557fc <vTaskGetInfo+0xf8>)
 80557b4:	4798      	blx	r3
 80557b6:	e006      	b.n	80557c6 <vTaskGetInfo+0xc2>
 80557b8:	6978      	ldr	r0, [r7, #20]
 80557ba:	f7ff ff1b 	bl	80555f4 <eTaskGetState>
 80557be:	4603      	mov	r3, r0
 80557c0:	461a      	mov	r2, r3
 80557c2:	68bb      	ldr	r3, [r7, #8]
 80557c4:	731a      	strb	r2, [r3, #12]
 80557c6:	687b      	ldr	r3, [r7, #4]
 80557c8:	2b00      	cmp	r3, #0
 80557ca:	d00a      	beq.n	80557e2 <vTaskGetInfo+0xde>
 80557cc:	697b      	ldr	r3, [r7, #20]
 80557ce:	f8d3 32c0 	ldr.w	r3, [r3, #704]	; 0x2c0
 80557d2:	4618      	mov	r0, r3
 80557d4:	f002 fafe 	bl	8057dd4 <prvTaskCheckFreeStackSpace>
 80557d8:	4603      	mov	r3, r0
 80557da:	461a      	mov	r2, r3
 80557dc:	68bb      	ldr	r3, [r7, #8]
 80557de:	841a      	strh	r2, [r3, #32]
 80557e0:	e002      	b.n	80557e8 <vTaskGetInfo+0xe4>
 80557e2:	68bb      	ldr	r3, [r7, #8]
 80557e4:	2200      	movs	r2, #0
 80557e6:	841a      	strh	r2, [r3, #32]
 80557e8:	bf00      	nop
 80557ea:	3718      	adds	r7, #24
 80557ec:	46bd      	mov	sp, r7
 80557ee:	bd80      	pop	{r7, pc}
 80557f0:	20000100 	.word	0x20000100
 80557f4:	0805ecc5 	.word	0x0805ecc5
 80557f8:	20000274 	.word	0x20000274
 80557fc:	0805eced 	.word	0x0805eced

08055800 <vTaskPrioritySet>:
 8055800:	b580      	push	{r7, lr}
 8055802:	b088      	sub	sp, #32
 8055804:	af00      	add	r7, sp, #0
 8055806:	6078      	str	r0, [r7, #4]
 8055808:	6039      	str	r1, [r7, #0]
 805580a:	2300      	movs	r3, #0
 805580c:	61fb      	str	r3, [r7, #28]
 805580e:	683b      	ldr	r3, [r7, #0]
 8055810:	2b0f      	cmp	r3, #15
 8055812:	d902      	bls.n	805581a <vTaskPrioritySet+0x1a>
 8055814:	4b60      	ldr	r3, [pc, #384]	; (8055998 <vTaskPrioritySet+0x198>)
 8055816:	4798      	blx	r3
 8055818:	e7fe      	b.n	8055818 <vTaskPrioritySet+0x18>
 805581a:	683b      	ldr	r3, [r7, #0]
 805581c:	2b0f      	cmp	r3, #15
 805581e:	d901      	bls.n	8055824 <vTaskPrioritySet+0x24>
 8055820:	230f      	movs	r3, #15
 8055822:	603b      	str	r3, [r7, #0]
 8055824:	4b5d      	ldr	r3, [pc, #372]	; (805599c <vTaskPrioritySet+0x19c>)
 8055826:	4798      	blx	r3
 8055828:	687b      	ldr	r3, [r7, #4]
 805582a:	2b00      	cmp	r3, #0
 805582c:	d102      	bne.n	8055834 <vTaskPrioritySet+0x34>
 805582e:	4b5c      	ldr	r3, [pc, #368]	; (80559a0 <vTaskPrioritySet+0x1a0>)
 8055830:	681b      	ldr	r3, [r3, #0]
 8055832:	e000      	b.n	8055836 <vTaskPrioritySet+0x36>
 8055834:	687b      	ldr	r3, [r7, #4]
 8055836:	61bb      	str	r3, [r7, #24]
 8055838:	69bb      	ldr	r3, [r7, #24]
 805583a:	f8d3 32dc 	ldr.w	r3, [r3, #732]	; 0x2dc
 805583e:	617b      	str	r3, [r7, #20]
 8055840:	697a      	ldr	r2, [r7, #20]
 8055842:	683b      	ldr	r3, [r7, #0]
 8055844:	429a      	cmp	r2, r3
 8055846:	f000 80a0 	beq.w	805598a <vTaskPrioritySet+0x18a>
 805584a:	683a      	ldr	r2, [r7, #0]
 805584c:	697b      	ldr	r3, [r7, #20]
 805584e:	429a      	cmp	r2, r3
 8055850:	d90e      	bls.n	8055870 <vTaskPrioritySet+0x70>
 8055852:	4b53      	ldr	r3, [pc, #332]	; (80559a0 <vTaskPrioritySet+0x1a0>)
 8055854:	681b      	ldr	r3, [r3, #0]
 8055856:	69ba      	ldr	r2, [r7, #24]
 8055858:	429a      	cmp	r2, r3
 805585a:	d010      	beq.n	805587e <vTaskPrioritySet+0x7e>
 805585c:	4b50      	ldr	r3, [pc, #320]	; (80559a0 <vTaskPrioritySet+0x1a0>)
 805585e:	681b      	ldr	r3, [r3, #0]
 8055860:	f8d3 32bc 	ldr.w	r3, [r3, #700]	; 0x2bc
 8055864:	683a      	ldr	r2, [r7, #0]
 8055866:	429a      	cmp	r2, r3
 8055868:	d909      	bls.n	805587e <vTaskPrioritySet+0x7e>
 805586a:	2301      	movs	r3, #1
 805586c:	61fb      	str	r3, [r7, #28]
 805586e:	e006      	b.n	805587e <vTaskPrioritySet+0x7e>
 8055870:	4b4b      	ldr	r3, [pc, #300]	; (80559a0 <vTaskPrioritySet+0x1a0>)
 8055872:	681b      	ldr	r3, [r3, #0]
 8055874:	69ba      	ldr	r2, [r7, #24]
 8055876:	429a      	cmp	r2, r3
 8055878:	d101      	bne.n	805587e <vTaskPrioritySet+0x7e>
 805587a:	2301      	movs	r3, #1
 805587c:	61fb      	str	r3, [r7, #28]
 805587e:	69bb      	ldr	r3, [r7, #24]
 8055880:	f8d3 32bc 	ldr.w	r3, [r3, #700]	; 0x2bc
 8055884:	613b      	str	r3, [r7, #16]
 8055886:	69bb      	ldr	r3, [r7, #24]
 8055888:	f8d3 22dc 	ldr.w	r2, [r3, #732]	; 0x2dc
 805588c:	69bb      	ldr	r3, [r7, #24]
 805588e:	f8d3 32bc 	ldr.w	r3, [r3, #700]	; 0x2bc
 8055892:	429a      	cmp	r2, r3
 8055894:	d005      	beq.n	80558a2 <vTaskPrioritySet+0xa2>
 8055896:	69bb      	ldr	r3, [r7, #24]
 8055898:	f8d3 32bc 	ldr.w	r3, [r3, #700]	; 0x2bc
 805589c:	683a      	ldr	r2, [r7, #0]
 805589e:	429a      	cmp	r2, r3
 80558a0:	d903      	bls.n	80558aa <vTaskPrioritySet+0xaa>
 80558a2:	69bb      	ldr	r3, [r7, #24]
 80558a4:	683a      	ldr	r2, [r7, #0]
 80558a6:	f8c3 22bc 	str.w	r2, [r3, #700]	; 0x2bc
 80558aa:	69bb      	ldr	r3, [r7, #24]
 80558ac:	683a      	ldr	r2, [r7, #0]
 80558ae:	f8c3 22dc 	str.w	r2, [r3, #732]	; 0x2dc
 80558b2:	69bb      	ldr	r3, [r7, #24]
 80558b4:	f8d3 32a8 	ldr.w	r3, [r3, #680]	; 0x2a8
 80558b8:	2b00      	cmp	r3, #0
 80558ba:	db05      	blt.n	80558c8 <vTaskPrioritySet+0xc8>
 80558bc:	683b      	ldr	r3, [r7, #0]
 80558be:	f1c3 0210 	rsb	r2, r3, #16
 80558c2:	69bb      	ldr	r3, [r7, #24]
 80558c4:	f8c3 22a8 	str.w	r2, [r3, #680]	; 0x2a8
 80558c8:	69bb      	ldr	r3, [r7, #24]
 80558ca:	f8d3 12a4 	ldr.w	r1, [r3, #676]	; 0x2a4
 80558ce:	693a      	ldr	r2, [r7, #16]
 80558d0:	4613      	mov	r3, r2
 80558d2:	009b      	lsls	r3, r3, #2
 80558d4:	4413      	add	r3, r2
 80558d6:	009b      	lsls	r3, r3, #2
 80558d8:	4a32      	ldr	r2, [pc, #200]	; (80559a4 <vTaskPrioritySet+0x1a4>)
 80558da:	4413      	add	r3, r2
 80558dc:	4299      	cmp	r1, r3
 80558de:	d14f      	bne.n	8055980 <vTaskPrioritySet+0x180>
 80558e0:	69bb      	ldr	r3, [r7, #24]
 80558e2:	f503 7325 	add.w	r3, r3, #660	; 0x294
 80558e6:	4618      	mov	r0, r3
 80558e8:	4b2f      	ldr	r3, [pc, #188]	; (80559a8 <vTaskPrioritySet+0x1a8>)
 80558ea:	4798      	blx	r3
 80558ec:	69bb      	ldr	r3, [r7, #24]
 80558ee:	f8d3 22bc 	ldr.w	r2, [r3, #700]	; 0x2bc
 80558f2:	4b2e      	ldr	r3, [pc, #184]	; (80559ac <vTaskPrioritySet+0x1ac>)
 80558f4:	681b      	ldr	r3, [r3, #0]
 80558f6:	429a      	cmp	r2, r3
 80558f8:	d904      	bls.n	8055904 <vTaskPrioritySet+0x104>
 80558fa:	69bb      	ldr	r3, [r7, #24]
 80558fc:	f8d3 32bc 	ldr.w	r3, [r3, #700]	; 0x2bc
 8055900:	4a2a      	ldr	r2, [pc, #168]	; (80559ac <vTaskPrioritySet+0x1ac>)
 8055902:	6013      	str	r3, [r2, #0]
 8055904:	69bb      	ldr	r3, [r7, #24]
 8055906:	f8d3 22bc 	ldr.w	r2, [r3, #700]	; 0x2bc
 805590a:	4926      	ldr	r1, [pc, #152]	; (80559a4 <vTaskPrioritySet+0x1a4>)
 805590c:	4613      	mov	r3, r2
 805590e:	009b      	lsls	r3, r3, #2
 8055910:	4413      	add	r3, r2
 8055912:	009b      	lsls	r3, r3, #2
 8055914:	440b      	add	r3, r1
 8055916:	3304      	adds	r3, #4
 8055918:	681b      	ldr	r3, [r3, #0]
 805591a:	60fb      	str	r3, [r7, #12]
 805591c:	69bb      	ldr	r3, [r7, #24]
 805591e:	68fa      	ldr	r2, [r7, #12]
 8055920:	f8c3 2298 	str.w	r2, [r3, #664]	; 0x298
 8055924:	68fb      	ldr	r3, [r7, #12]
 8055926:	689a      	ldr	r2, [r3, #8]
 8055928:	69bb      	ldr	r3, [r7, #24]
 805592a:	f8c3 229c 	str.w	r2, [r3, #668]	; 0x29c
 805592e:	68fb      	ldr	r3, [r7, #12]
 8055930:	689b      	ldr	r3, [r3, #8]
 8055932:	69ba      	ldr	r2, [r7, #24]
 8055934:	f502 7225 	add.w	r2, r2, #660	; 0x294
 8055938:	605a      	str	r2, [r3, #4]
 805593a:	69bb      	ldr	r3, [r7, #24]
 805593c:	f503 7225 	add.w	r2, r3, #660	; 0x294
 8055940:	68fb      	ldr	r3, [r7, #12]
 8055942:	609a      	str	r2, [r3, #8]
 8055944:	69bb      	ldr	r3, [r7, #24]
 8055946:	f8d3 22bc 	ldr.w	r2, [r3, #700]	; 0x2bc
 805594a:	4613      	mov	r3, r2
 805594c:	009b      	lsls	r3, r3, #2
 805594e:	4413      	add	r3, r2
 8055950:	009b      	lsls	r3, r3, #2
 8055952:	4a14      	ldr	r2, [pc, #80]	; (80559a4 <vTaskPrioritySet+0x1a4>)
 8055954:	441a      	add	r2, r3
 8055956:	69bb      	ldr	r3, [r7, #24]
 8055958:	f8c3 22a4 	str.w	r2, [r3, #676]	; 0x2a4
 805595c:	69bb      	ldr	r3, [r7, #24]
 805595e:	f8d3 22bc 	ldr.w	r2, [r3, #700]	; 0x2bc
 8055962:	4910      	ldr	r1, [pc, #64]	; (80559a4 <vTaskPrioritySet+0x1a4>)
 8055964:	4613      	mov	r3, r2
 8055966:	009b      	lsls	r3, r3, #2
 8055968:	4413      	add	r3, r2
 805596a:	009b      	lsls	r3, r3, #2
 805596c:	440b      	add	r3, r1
 805596e:	681b      	ldr	r3, [r3, #0]
 8055970:	1c59      	adds	r1, r3, #1
 8055972:	480c      	ldr	r0, [pc, #48]	; (80559a4 <vTaskPrioritySet+0x1a4>)
 8055974:	4613      	mov	r3, r2
 8055976:	009b      	lsls	r3, r3, #2
 8055978:	4413      	add	r3, r2
 805597a:	009b      	lsls	r3, r3, #2
 805597c:	4403      	add	r3, r0
 805597e:	6019      	str	r1, [r3, #0]
 8055980:	69fb      	ldr	r3, [r7, #28]
 8055982:	2b00      	cmp	r3, #0
 8055984:	d001      	beq.n	805598a <vTaskPrioritySet+0x18a>
 8055986:	4b0a      	ldr	r3, [pc, #40]	; (80559b0 <vTaskPrioritySet+0x1b0>)
 8055988:	4798      	blx	r3
 805598a:	4b0a      	ldr	r3, [pc, #40]	; (80559b4 <vTaskPrioritySet+0x1b4>)
 805598c:	4798      	blx	r3
 805598e:	bf00      	nop
 8055990:	3720      	adds	r7, #32
 8055992:	46bd      	mov	sp, r7
 8055994:	bd80      	pop	{r7, pc}
 8055996:	bf00      	nop
 8055998:	0805f1c7 	.word	0x0805f1c7
 805599c:	0805ecc5 	.word	0x0805ecc5
 80559a0:	20000100 	.word	0x20000100
 80559a4:	20000104 	.word	0x20000104
 80559a8:	0805c449 	.word	0x0805c449
 80559ac:	200002bc 	.word	0x200002bc
 80559b0:	0805eca5 	.word	0x0805eca5
 80559b4:	0805eced 	.word	0x0805eced

080559b8 <vTaskSuspend>:
 80559b8:	b580      	push	{r7, lr}
 80559ba:	b084      	sub	sp, #16
 80559bc:	af00      	add	r7, sp, #0
 80559be:	6078      	str	r0, [r7, #4]
 80559c0:	4b34      	ldr	r3, [pc, #208]	; (8055a94 <vTaskSuspend+0xdc>)
 80559c2:	4798      	blx	r3
 80559c4:	687b      	ldr	r3, [r7, #4]
 80559c6:	2b00      	cmp	r3, #0
 80559c8:	d102      	bne.n	80559d0 <vTaskSuspend+0x18>
 80559ca:	4b33      	ldr	r3, [pc, #204]	; (8055a98 <vTaskSuspend+0xe0>)
 80559cc:	681b      	ldr	r3, [r3, #0]
 80559ce:	e000      	b.n	80559d2 <vTaskSuspend+0x1a>
 80559d0:	687b      	ldr	r3, [r7, #4]
 80559d2:	60bb      	str	r3, [r7, #8]
 80559d4:	68bb      	ldr	r3, [r7, #8]
 80559d6:	f503 7325 	add.w	r3, r3, #660	; 0x294
 80559da:	4618      	mov	r0, r3
 80559dc:	4b2f      	ldr	r3, [pc, #188]	; (8055a9c <vTaskSuspend+0xe4>)
 80559de:	4798      	blx	r3
 80559e0:	68bb      	ldr	r3, [r7, #8]
 80559e2:	f8d3 32b8 	ldr.w	r3, [r3, #696]	; 0x2b8
 80559e6:	2b00      	cmp	r3, #0
 80559e8:	d005      	beq.n	80559f6 <vTaskSuspend+0x3e>
 80559ea:	68bb      	ldr	r3, [r7, #8]
 80559ec:	f503 732a 	add.w	r3, r3, #680	; 0x2a8
 80559f0:	4618      	mov	r0, r3
 80559f2:	4b2a      	ldr	r3, [pc, #168]	; (8055a9c <vTaskSuspend+0xe4>)
 80559f4:	4798      	blx	r3
 80559f6:	68bb      	ldr	r3, [r7, #8]
 80559f8:	f503 7325 	add.w	r3, r3, #660	; 0x294
 80559fc:	4619      	mov	r1, r3
 80559fe:	4828      	ldr	r0, [pc, #160]	; (8055aa0 <vTaskSuspend+0xe8>)
 8055a00:	4b28      	ldr	r3, [pc, #160]	; (8055aa4 <vTaskSuspend+0xec>)
 8055a02:	4798      	blx	r3
 8055a04:	2300      	movs	r3, #0
 8055a06:	60fb      	str	r3, [r7, #12]
 8055a08:	e012      	b.n	8055a30 <vTaskSuspend+0x78>
 8055a0a:	68ba      	ldr	r2, [r7, #8]
 8055a0c:	68fb      	ldr	r3, [r7, #12]
 8055a0e:	4413      	add	r3, r2
 8055a10:	f503 733a 	add.w	r3, r3, #744	; 0x2e8
 8055a14:	781b      	ldrb	r3, [r3, #0]
 8055a16:	b2db      	uxtb	r3, r3
 8055a18:	2b01      	cmp	r3, #1
 8055a1a:	d106      	bne.n	8055a2a <vTaskSuspend+0x72>
 8055a1c:	68ba      	ldr	r2, [r7, #8]
 8055a1e:	68fb      	ldr	r3, [r7, #12]
 8055a20:	4413      	add	r3, r2
 8055a22:	f503 733a 	add.w	r3, r3, #744	; 0x2e8
 8055a26:	2200      	movs	r2, #0
 8055a28:	701a      	strb	r2, [r3, #0]
 8055a2a:	68fb      	ldr	r3, [r7, #12]
 8055a2c:	3301      	adds	r3, #1
 8055a2e:	60fb      	str	r3, [r7, #12]
 8055a30:	68fb      	ldr	r3, [r7, #12]
 8055a32:	2b00      	cmp	r3, #0
 8055a34:	dde9      	ble.n	8055a0a <vTaskSuspend+0x52>
 8055a36:	4b1c      	ldr	r3, [pc, #112]	; (8055aa8 <vTaskSuspend+0xf0>)
 8055a38:	4798      	blx	r3
 8055a3a:	4b1c      	ldr	r3, [pc, #112]	; (8055aac <vTaskSuspend+0xf4>)
 8055a3c:	681b      	ldr	r3, [r3, #0]
 8055a3e:	2b00      	cmp	r3, #0
 8055a40:	d005      	beq.n	8055a4e <vTaskSuspend+0x96>
 8055a42:	4b14      	ldr	r3, [pc, #80]	; (8055a94 <vTaskSuspend+0xdc>)
 8055a44:	4798      	blx	r3
 8055a46:	f002 f9e0 	bl	8057e0a <prvResetNextTaskUnblockTime>
 8055a4a:	4b17      	ldr	r3, [pc, #92]	; (8055aa8 <vTaskSuspend+0xf0>)
 8055a4c:	4798      	blx	r3
 8055a4e:	4b12      	ldr	r3, [pc, #72]	; (8055a98 <vTaskSuspend+0xe0>)
 8055a50:	681b      	ldr	r3, [r3, #0]
 8055a52:	68ba      	ldr	r2, [r7, #8]
 8055a54:	429a      	cmp	r2, r3
 8055a56:	d119      	bne.n	8055a8c <vTaskSuspend+0xd4>
 8055a58:	4b14      	ldr	r3, [pc, #80]	; (8055aac <vTaskSuspend+0xf4>)
 8055a5a:	681b      	ldr	r3, [r3, #0]
 8055a5c:	2b00      	cmp	r3, #0
 8055a5e:	d009      	beq.n	8055a74 <vTaskSuspend+0xbc>
 8055a60:	4b13      	ldr	r3, [pc, #76]	; (8055ab0 <vTaskSuspend+0xf8>)
 8055a62:	681b      	ldr	r3, [r3, #0]
 8055a64:	2b00      	cmp	r3, #0
 8055a66:	d002      	beq.n	8055a6e <vTaskSuspend+0xb6>
 8055a68:	4b12      	ldr	r3, [pc, #72]	; (8055ab4 <vTaskSuspend+0xfc>)
 8055a6a:	4798      	blx	r3
 8055a6c:	e7fe      	b.n	8055a6c <vTaskSuspend+0xb4>
 8055a6e:	4b12      	ldr	r3, [pc, #72]	; (8055ab8 <vTaskSuspend+0x100>)
 8055a70:	4798      	blx	r3
 8055a72:	e00b      	b.n	8055a8c <vTaskSuspend+0xd4>
 8055a74:	4b0a      	ldr	r3, [pc, #40]	; (8055aa0 <vTaskSuspend+0xe8>)
 8055a76:	681a      	ldr	r2, [r3, #0]
 8055a78:	4b10      	ldr	r3, [pc, #64]	; (8055abc <vTaskSuspend+0x104>)
 8055a7a:	681b      	ldr	r3, [r3, #0]
 8055a7c:	429a      	cmp	r2, r3
 8055a7e:	d103      	bne.n	8055a88 <vTaskSuspend+0xd0>
 8055a80:	4b05      	ldr	r3, [pc, #20]	; (8055a98 <vTaskSuspend+0xe0>)
 8055a82:	2200      	movs	r2, #0
 8055a84:	601a      	str	r2, [r3, #0]
 8055a86:	e001      	b.n	8055a8c <vTaskSuspend+0xd4>
 8055a88:	f001 fce8 	bl	805745c <vTaskSwitchContext>
 8055a8c:	bf00      	nop
 8055a8e:	3710      	adds	r7, #16
 8055a90:	46bd      	mov	sp, r7
 8055a92:	bd80      	pop	{r7, pc}
 8055a94:	0805ecc5 	.word	0x0805ecc5
 8055a98:	20000100 	.word	0x20000100
 8055a9c:	0805c449 	.word	0x0805c449
 8055aa0:	200002a0 	.word	0x200002a0
 8055aa4:	0805c403 	.word	0x0805c403
 8055aa8:	0805eced 	.word	0x0805eced
 8055aac:	200002c0 	.word	0x200002c0
 8055ab0:	200002dc 	.word	0x200002dc
 8055ab4:	0805f1c7 	.word	0x0805f1c7
 8055ab8:	0805eca5 	.word	0x0805eca5
 8055abc:	200002b4 	.word	0x200002b4

08055ac0 <vTaskResume>:
 8055ac0:	b580      	push	{r7, lr}
 8055ac2:	b084      	sub	sp, #16
 8055ac4:	af00      	add	r7, sp, #0
 8055ac6:	6078      	str	r0, [r7, #4]
 8055ac8:	687b      	ldr	r3, [r7, #4]
 8055aca:	60fb      	str	r3, [r7, #12]
 8055acc:	687b      	ldr	r3, [r7, #4]
 8055ace:	2b00      	cmp	r3, #0
 8055ad0:	d102      	bne.n	8055ad8 <vTaskResume+0x18>
 8055ad2:	4b3a      	ldr	r3, [pc, #232]	; (8055bbc <vTaskResume+0xfc>)
 8055ad4:	4798      	blx	r3
 8055ad6:	e7fe      	b.n	8055ad6 <vTaskResume+0x16>
 8055ad8:	4b39      	ldr	r3, [pc, #228]	; (8055bc0 <vTaskResume+0x100>)
 8055ada:	681b      	ldr	r3, [r3, #0]
 8055adc:	68fa      	ldr	r2, [r7, #12]
 8055ade:	429a      	cmp	r2, r3
 8055ae0:	d067      	beq.n	8055bb2 <vTaskResume+0xf2>
 8055ae2:	68fb      	ldr	r3, [r7, #12]
 8055ae4:	2b00      	cmp	r3, #0
 8055ae6:	d064      	beq.n	8055bb2 <vTaskResume+0xf2>
 8055ae8:	4b36      	ldr	r3, [pc, #216]	; (8055bc4 <vTaskResume+0x104>)
 8055aea:	4798      	blx	r3
 8055aec:	68f8      	ldr	r0, [r7, #12]
 8055aee:	f001 ffc9 	bl	8057a84 <prvTaskIsTaskSuspended>
 8055af2:	4603      	mov	r3, r0
 8055af4:	2b00      	cmp	r3, #0
 8055af6:	d05a      	beq.n	8055bae <vTaskResume+0xee>
 8055af8:	68fb      	ldr	r3, [r7, #12]
 8055afa:	f503 7325 	add.w	r3, r3, #660	; 0x294
 8055afe:	4618      	mov	r0, r3
 8055b00:	4b31      	ldr	r3, [pc, #196]	; (8055bc8 <vTaskResume+0x108>)
 8055b02:	4798      	blx	r3
 8055b04:	68fb      	ldr	r3, [r7, #12]
 8055b06:	f8d3 22bc 	ldr.w	r2, [r3, #700]	; 0x2bc
 8055b0a:	4b30      	ldr	r3, [pc, #192]	; (8055bcc <vTaskResume+0x10c>)
 8055b0c:	681b      	ldr	r3, [r3, #0]
 8055b0e:	429a      	cmp	r2, r3
 8055b10:	d904      	bls.n	8055b1c <vTaskResume+0x5c>
 8055b12:	68fb      	ldr	r3, [r7, #12]
 8055b14:	f8d3 32bc 	ldr.w	r3, [r3, #700]	; 0x2bc
 8055b18:	4a2c      	ldr	r2, [pc, #176]	; (8055bcc <vTaskResume+0x10c>)
 8055b1a:	6013      	str	r3, [r2, #0]
 8055b1c:	68fb      	ldr	r3, [r7, #12]
 8055b1e:	f8d3 22bc 	ldr.w	r2, [r3, #700]	; 0x2bc
 8055b22:	492b      	ldr	r1, [pc, #172]	; (8055bd0 <vTaskResume+0x110>)
 8055b24:	4613      	mov	r3, r2
 8055b26:	009b      	lsls	r3, r3, #2
 8055b28:	4413      	add	r3, r2
 8055b2a:	009b      	lsls	r3, r3, #2
 8055b2c:	440b      	add	r3, r1
 8055b2e:	3304      	adds	r3, #4
 8055b30:	681b      	ldr	r3, [r3, #0]
 8055b32:	60bb      	str	r3, [r7, #8]
 8055b34:	68fb      	ldr	r3, [r7, #12]
 8055b36:	68ba      	ldr	r2, [r7, #8]
 8055b38:	f8c3 2298 	str.w	r2, [r3, #664]	; 0x298
 8055b3c:	68bb      	ldr	r3, [r7, #8]
 8055b3e:	689a      	ldr	r2, [r3, #8]
 8055b40:	68fb      	ldr	r3, [r7, #12]
 8055b42:	f8c3 229c 	str.w	r2, [r3, #668]	; 0x29c
 8055b46:	68bb      	ldr	r3, [r7, #8]
 8055b48:	689b      	ldr	r3, [r3, #8]
 8055b4a:	68fa      	ldr	r2, [r7, #12]
 8055b4c:	f502 7225 	add.w	r2, r2, #660	; 0x294
 8055b50:	605a      	str	r2, [r3, #4]
 8055b52:	68fb      	ldr	r3, [r7, #12]
 8055b54:	f503 7225 	add.w	r2, r3, #660	; 0x294
 8055b58:	68bb      	ldr	r3, [r7, #8]
 8055b5a:	609a      	str	r2, [r3, #8]
 8055b5c:	68fb      	ldr	r3, [r7, #12]
 8055b5e:	f8d3 22bc 	ldr.w	r2, [r3, #700]	; 0x2bc
 8055b62:	4613      	mov	r3, r2
 8055b64:	009b      	lsls	r3, r3, #2
 8055b66:	4413      	add	r3, r2
 8055b68:	009b      	lsls	r3, r3, #2
 8055b6a:	4a19      	ldr	r2, [pc, #100]	; (8055bd0 <vTaskResume+0x110>)
 8055b6c:	441a      	add	r2, r3
 8055b6e:	68fb      	ldr	r3, [r7, #12]
 8055b70:	f8c3 22a4 	str.w	r2, [r3, #676]	; 0x2a4
 8055b74:	68fb      	ldr	r3, [r7, #12]
 8055b76:	f8d3 22bc 	ldr.w	r2, [r3, #700]	; 0x2bc
 8055b7a:	4915      	ldr	r1, [pc, #84]	; (8055bd0 <vTaskResume+0x110>)
 8055b7c:	4613      	mov	r3, r2
 8055b7e:	009b      	lsls	r3, r3, #2
 8055b80:	4413      	add	r3, r2
 8055b82:	009b      	lsls	r3, r3, #2
 8055b84:	440b      	add	r3, r1
 8055b86:	681b      	ldr	r3, [r3, #0]
 8055b88:	1c59      	adds	r1, r3, #1
 8055b8a:	4811      	ldr	r0, [pc, #68]	; (8055bd0 <vTaskResume+0x110>)
 8055b8c:	4613      	mov	r3, r2
 8055b8e:	009b      	lsls	r3, r3, #2
 8055b90:	4413      	add	r3, r2
 8055b92:	009b      	lsls	r3, r3, #2
 8055b94:	4403      	add	r3, r0
 8055b96:	6019      	str	r1, [r3, #0]
 8055b98:	4b09      	ldr	r3, [pc, #36]	; (8055bc0 <vTaskResume+0x100>)
 8055b9a:	681b      	ldr	r3, [r3, #0]
 8055b9c:	f8d3 22bc 	ldr.w	r2, [r3, #700]	; 0x2bc
 8055ba0:	68fb      	ldr	r3, [r7, #12]
 8055ba2:	f8d3 32bc 	ldr.w	r3, [r3, #700]	; 0x2bc
 8055ba6:	429a      	cmp	r2, r3
 8055ba8:	d201      	bcs.n	8055bae <vTaskResume+0xee>
 8055baa:	4b0a      	ldr	r3, [pc, #40]	; (8055bd4 <vTaskResume+0x114>)
 8055bac:	4798      	blx	r3
 8055bae:	4b0a      	ldr	r3, [pc, #40]	; (8055bd8 <vTaskResume+0x118>)
 8055bb0:	4798      	blx	r3
 8055bb2:	bf00      	nop
 8055bb4:	3710      	adds	r7, #16
 8055bb6:	46bd      	mov	sp, r7
 8055bb8:	bd80      	pop	{r7, pc}
 8055bba:	bf00      	nop
 8055bbc:	0805f1c7 	.word	0x0805f1c7
 8055bc0:	20000100 	.word	0x20000100
 8055bc4:	0805ecc5 	.word	0x0805ecc5
 8055bc8:	0805c449 	.word	0x0805c449
 8055bcc:	200002bc 	.word	0x200002bc
 8055bd0:	20000104 	.word	0x20000104
 8055bd4:	0805eca5 	.word	0x0805eca5
 8055bd8:	0805eced 	.word	0x0805eced

08055bdc <xTaskResumeFromISR>:
 8055bdc:	b580      	push	{r7, lr}
 8055bde:	b086      	sub	sp, #24
 8055be0:	af00      	add	r7, sp, #0
 8055be2:	6078      	str	r0, [r7, #4]
 8055be4:	2300      	movs	r3, #0
 8055be6:	617b      	str	r3, [r7, #20]
 8055be8:	687b      	ldr	r3, [r7, #4]
 8055bea:	613b      	str	r3, [r7, #16]
 8055bec:	687b      	ldr	r3, [r7, #4]
 8055bee:	2b00      	cmp	r3, #0
 8055bf0:	d102      	bne.n	8055bf8 <xTaskResumeFromISR+0x1c>
 8055bf2:	4b40      	ldr	r3, [pc, #256]	; (8055cf4 <xTaskResumeFromISR+0x118>)
 8055bf4:	4798      	blx	r3
 8055bf6:	e7fe      	b.n	8055bf6 <xTaskResumeFromISR+0x1a>
 8055bf8:	4b3f      	ldr	r3, [pc, #252]	; (8055cf8 <xTaskResumeFromISR+0x11c>)
 8055bfa:	4798      	blx	r3
 8055bfc:	4b3d      	ldr	r3, [pc, #244]	; (8055cf4 <xTaskResumeFromISR+0x118>)
 8055bfe:	4798      	blx	r3
 8055c00:	60f8      	str	r0, [r7, #12]
 8055c02:	6938      	ldr	r0, [r7, #16]
 8055c04:	f001 ff3e 	bl	8057a84 <prvTaskIsTaskSuspended>
 8055c08:	4603      	mov	r3, r0
 8055c0a:	2b00      	cmp	r3, #0
 8055c0c:	d069      	beq.n	8055ce2 <xTaskResumeFromISR+0x106>
 8055c0e:	4b3b      	ldr	r3, [pc, #236]	; (8055cfc <xTaskResumeFromISR+0x120>)
 8055c10:	681b      	ldr	r3, [r3, #0]
 8055c12:	2b00      	cmp	r3, #0
 8055c14:	d15e      	bne.n	8055cd4 <xTaskResumeFromISR+0xf8>
 8055c16:	693b      	ldr	r3, [r7, #16]
 8055c18:	f8d3 22bc 	ldr.w	r2, [r3, #700]	; 0x2bc
 8055c1c:	4b38      	ldr	r3, [pc, #224]	; (8055d00 <xTaskResumeFromISR+0x124>)
 8055c1e:	681b      	ldr	r3, [r3, #0]
 8055c20:	f8d3 32bc 	ldr.w	r3, [r3, #700]	; 0x2bc
 8055c24:	429a      	cmp	r2, r3
 8055c26:	d904      	bls.n	8055c32 <xTaskResumeFromISR+0x56>
 8055c28:	2301      	movs	r3, #1
 8055c2a:	617b      	str	r3, [r7, #20]
 8055c2c:	4b35      	ldr	r3, [pc, #212]	; (8055d04 <xTaskResumeFromISR+0x128>)
 8055c2e:	2201      	movs	r2, #1
 8055c30:	601a      	str	r2, [r3, #0]
 8055c32:	693b      	ldr	r3, [r7, #16]
 8055c34:	f503 7325 	add.w	r3, r3, #660	; 0x294
 8055c38:	4618      	mov	r0, r3
 8055c3a:	4b33      	ldr	r3, [pc, #204]	; (8055d08 <xTaskResumeFromISR+0x12c>)
 8055c3c:	4798      	blx	r3
 8055c3e:	693b      	ldr	r3, [r7, #16]
 8055c40:	f8d3 22bc 	ldr.w	r2, [r3, #700]	; 0x2bc
 8055c44:	4b31      	ldr	r3, [pc, #196]	; (8055d0c <xTaskResumeFromISR+0x130>)
 8055c46:	681b      	ldr	r3, [r3, #0]
 8055c48:	429a      	cmp	r2, r3
 8055c4a:	d904      	bls.n	8055c56 <xTaskResumeFromISR+0x7a>
 8055c4c:	693b      	ldr	r3, [r7, #16]
 8055c4e:	f8d3 32bc 	ldr.w	r3, [r3, #700]	; 0x2bc
 8055c52:	4a2e      	ldr	r2, [pc, #184]	; (8055d0c <xTaskResumeFromISR+0x130>)
 8055c54:	6013      	str	r3, [r2, #0]
 8055c56:	693b      	ldr	r3, [r7, #16]
 8055c58:	f8d3 22bc 	ldr.w	r2, [r3, #700]	; 0x2bc
 8055c5c:	492c      	ldr	r1, [pc, #176]	; (8055d10 <xTaskResumeFromISR+0x134>)
 8055c5e:	4613      	mov	r3, r2
 8055c60:	009b      	lsls	r3, r3, #2
 8055c62:	4413      	add	r3, r2
 8055c64:	009b      	lsls	r3, r3, #2
 8055c66:	440b      	add	r3, r1
 8055c68:	3304      	adds	r3, #4
 8055c6a:	681b      	ldr	r3, [r3, #0]
 8055c6c:	60bb      	str	r3, [r7, #8]
 8055c6e:	693b      	ldr	r3, [r7, #16]
 8055c70:	68ba      	ldr	r2, [r7, #8]
 8055c72:	f8c3 2298 	str.w	r2, [r3, #664]	; 0x298
 8055c76:	68bb      	ldr	r3, [r7, #8]
 8055c78:	689a      	ldr	r2, [r3, #8]
 8055c7a:	693b      	ldr	r3, [r7, #16]
 8055c7c:	f8c3 229c 	str.w	r2, [r3, #668]	; 0x29c
 8055c80:	68bb      	ldr	r3, [r7, #8]
 8055c82:	689b      	ldr	r3, [r3, #8]
 8055c84:	693a      	ldr	r2, [r7, #16]
 8055c86:	f502 7225 	add.w	r2, r2, #660	; 0x294
 8055c8a:	605a      	str	r2, [r3, #4]
 8055c8c:	693b      	ldr	r3, [r7, #16]
 8055c8e:	f503 7225 	add.w	r2, r3, #660	; 0x294
 8055c92:	68bb      	ldr	r3, [r7, #8]
 8055c94:	609a      	str	r2, [r3, #8]
 8055c96:	693b      	ldr	r3, [r7, #16]
 8055c98:	f8d3 22bc 	ldr.w	r2, [r3, #700]	; 0x2bc
 8055c9c:	4613      	mov	r3, r2
 8055c9e:	009b      	lsls	r3, r3, #2
 8055ca0:	4413      	add	r3, r2
 8055ca2:	009b      	lsls	r3, r3, #2
 8055ca4:	4a1a      	ldr	r2, [pc, #104]	; (8055d10 <xTaskResumeFromISR+0x134>)
 8055ca6:	441a      	add	r2, r3
 8055ca8:	693b      	ldr	r3, [r7, #16]
 8055caa:	f8c3 22a4 	str.w	r2, [r3, #676]	; 0x2a4
 8055cae:	693b      	ldr	r3, [r7, #16]
 8055cb0:	f8d3 22bc 	ldr.w	r2, [r3, #700]	; 0x2bc
 8055cb4:	4916      	ldr	r1, [pc, #88]	; (8055d10 <xTaskResumeFromISR+0x134>)
 8055cb6:	4613      	mov	r3, r2
 8055cb8:	009b      	lsls	r3, r3, #2
 8055cba:	4413      	add	r3, r2
 8055cbc:	009b      	lsls	r3, r3, #2
 8055cbe:	440b      	add	r3, r1
 8055cc0:	681b      	ldr	r3, [r3, #0]
 8055cc2:	1c59      	adds	r1, r3, #1
 8055cc4:	4812      	ldr	r0, [pc, #72]	; (8055d10 <xTaskResumeFromISR+0x134>)
 8055cc6:	4613      	mov	r3, r2
 8055cc8:	009b      	lsls	r3, r3, #2
 8055cca:	4413      	add	r3, r2
 8055ccc:	009b      	lsls	r3, r3, #2
 8055cce:	4403      	add	r3, r0
 8055cd0:	6019      	str	r1, [r3, #0]
 8055cd2:	e006      	b.n	8055ce2 <xTaskResumeFromISR+0x106>
 8055cd4:	693b      	ldr	r3, [r7, #16]
 8055cd6:	f503 732a 	add.w	r3, r3, #680	; 0x2a8
 8055cda:	4619      	mov	r1, r3
 8055cdc:	480d      	ldr	r0, [pc, #52]	; (8055d14 <xTaskResumeFromISR+0x138>)
 8055cde:	4b0e      	ldr	r3, [pc, #56]	; (8055d18 <xTaskResumeFromISR+0x13c>)
 8055ce0:	4798      	blx	r3
 8055ce2:	68f8      	ldr	r0, [r7, #12]
 8055ce4:	4b0d      	ldr	r3, [pc, #52]	; (8055d1c <xTaskResumeFromISR+0x140>)
 8055ce6:	4798      	blx	r3
 8055ce8:	697b      	ldr	r3, [r7, #20]
 8055cea:	4618      	mov	r0, r3
 8055cec:	3718      	adds	r7, #24
 8055cee:	46bd      	mov	sp, r7
 8055cf0:	bd80      	pop	{r7, pc}
 8055cf2:	bf00      	nop
 8055cf4:	0805f1c7 	.word	0x0805f1c7
 8055cf8:	080607fd 	.word	0x080607fd
 8055cfc:	200002dc 	.word	0x200002dc
 8055d00:	20000100 	.word	0x20000100
 8055d04:	200002c8 	.word	0x200002c8
 8055d08:	0805c449 	.word	0x0805c449
 8055d0c:	200002bc 	.word	0x200002bc
 8055d10:	20000104 	.word	0x20000104
 8055d14:	20000274 	.word	0x20000274
 8055d18:	0805c403 	.word	0x0805c403
 8055d1c:	0805f1e1 	.word	0x0805f1e1

08055d20 <vTaskStartScheduler>:
 8055d20:	b580      	push	{r7, lr}
 8055d22:	b082      	sub	sp, #8
 8055d24:	af00      	add	r7, sp, #0
 8055d26:	4b14      	ldr	r3, [pc, #80]	; (8055d78 <vTaskStartScheduler+0x58>)
 8055d28:	4798      	blx	r3
 8055d2a:	6078      	str	r0, [r7, #4]
 8055d2c:	687b      	ldr	r3, [r7, #4]
 8055d2e:	2b01      	cmp	r3, #1
 8055d30:	d102      	bne.n	8055d38 <vTaskStartScheduler+0x18>
 8055d32:	4b12      	ldr	r3, [pc, #72]	; (8055d7c <vTaskStartScheduler+0x5c>)
 8055d34:	4798      	blx	r3
 8055d36:	6078      	str	r0, [r7, #4]
 8055d38:	687b      	ldr	r3, [r7, #4]
 8055d3a:	2b01      	cmp	r3, #1
 8055d3c:	d10e      	bne.n	8055d5c <vTaskStartScheduler+0x3c>
 8055d3e:	4b10      	ldr	r3, [pc, #64]	; (8055d80 <vTaskStartScheduler+0x60>)
 8055d40:	4798      	blx	r3
 8055d42:	4b10      	ldr	r3, [pc, #64]	; (8055d84 <vTaskStartScheduler+0x64>)
 8055d44:	f04f 32ff 	mov.w	r2, #4294967295	; 0xffffffff
 8055d48:	601a      	str	r2, [r3, #0]
 8055d4a:	4b0f      	ldr	r3, [pc, #60]	; (8055d88 <vTaskStartScheduler+0x68>)
 8055d4c:	2201      	movs	r2, #1
 8055d4e:	601a      	str	r2, [r3, #0]
 8055d50:	4b0e      	ldr	r3, [pc, #56]	; (8055d8c <vTaskStartScheduler+0x6c>)
 8055d52:	2200      	movs	r2, #0
 8055d54:	601a      	str	r2, [r3, #0]
 8055d56:	4b0e      	ldr	r3, [pc, #56]	; (8055d90 <vTaskStartScheduler+0x70>)
 8055d58:	4798      	blx	r3
 8055d5a:	e006      	b.n	8055d6a <vTaskStartScheduler+0x4a>
 8055d5c:	687b      	ldr	r3, [r7, #4]
 8055d5e:	f1b3 3fff 	cmp.w	r3, #4294967295	; 0xffffffff
 8055d62:	d102      	bne.n	8055d6a <vTaskStartScheduler+0x4a>
 8055d64:	4b06      	ldr	r3, [pc, #24]	; (8055d80 <vTaskStartScheduler+0x60>)
 8055d66:	4798      	blx	r3
 8055d68:	e7fe      	b.n	8055d68 <vTaskStartScheduler+0x48>
 8055d6a:	4b0a      	ldr	r3, [pc, #40]	; (8055d94 <vTaskStartScheduler+0x74>)
 8055d6c:	681b      	ldr	r3, [r3, #0]
 8055d6e:	bf00      	nop
 8055d70:	3708      	adds	r7, #8
 8055d72:	46bd      	mov	sp, r7
 8055d74:	bd80      	pop	{r7, pc}
 8055d76:	bf00      	nop
 8055d78:	08060729 	.word	0x08060729
 8055d7c:	08058531 	.word	0x08058531
 8055d80:	0805f1c7 	.word	0x0805f1c7
 8055d84:	200002d4 	.word	0x200002d4
 8055d88:	200002c0 	.word	0x200002c0
 8055d8c:	200002b8 	.word	0x200002b8
 8055d90:	0805e6d5 	.word	0x0805e6d5
 8055d94:	20003b8c 	.word	0x20003b8c

08055d98 <vTaskEndScheduler>:
 8055d98:	b580      	push	{r7, lr}
 8055d9a:	af00      	add	r7, sp, #0
 8055d9c:	4b04      	ldr	r3, [pc, #16]	; (8055db0 <vTaskEndScheduler+0x18>)
 8055d9e:	4798      	blx	r3
 8055da0:	4b04      	ldr	r3, [pc, #16]	; (8055db4 <vTaskEndScheduler+0x1c>)
 8055da2:	2200      	movs	r2, #0
 8055da4:	601a      	str	r2, [r3, #0]
 8055da6:	4b04      	ldr	r3, [pc, #16]	; (8055db8 <vTaskEndScheduler+0x20>)
 8055da8:	4798      	blx	r3
 8055daa:	bf00      	nop
 8055dac:	bd80      	pop	{r7, pc}
 8055dae:	bf00      	nop
 8055db0:	0805f1c7 	.word	0x0805f1c7
 8055db4:	200002c0 	.word	0x200002c0
 8055db8:	0805e7e1 	.word	0x0805e7e1

08055dbc <vTaskSuspendAll>:
 8055dbc:	b480      	push	{r7}
 8055dbe:	af00      	add	r7, sp, #0
 8055dc0:	4b04      	ldr	r3, [pc, #16]	; (8055dd4 <vTaskSuspendAll+0x18>)
 8055dc2:	681b      	ldr	r3, [r3, #0]
 8055dc4:	3301      	adds	r3, #1
 8055dc6:	4a03      	ldr	r2, [pc, #12]	; (8055dd4 <vTaskSuspendAll+0x18>)
 8055dc8:	6013      	str	r3, [r2, #0]
 8055dca:	bf00      	nop
 8055dcc:	46bd      	mov	sp, r7
 8055dce:	bc80      	pop	{r7}
 8055dd0:	4770      	bx	lr
 8055dd2:	bf00      	nop
 8055dd4:	200002dc 	.word	0x200002dc

08055dd8 <xTaskResumeAll>:
 8055dd8:	b580      	push	{r7, lr}
 8055dda:	b088      	sub	sp, #32
 8055ddc:	af00      	add	r7, sp, #0
 8055dde:	2300      	movs	r3, #0
 8055de0:	61fb      	str	r3, [r7, #28]
 8055de2:	2300      	movs	r3, #0
 8055de4:	61bb      	str	r3, [r7, #24]
 8055de6:	4b7d      	ldr	r3, [pc, #500]	; (8055fdc <xTaskResumeAll+0x204>)
 8055de8:	4798      	blx	r3
 8055dea:	2300      	movs	r3, #0
 8055dec:	613b      	str	r3, [r7, #16]
 8055dee:	4b7c      	ldr	r3, [pc, #496]	; (8055fe0 <xTaskResumeAll+0x208>)
 8055df0:	681b      	ldr	r3, [r3, #0]
 8055df2:	2b00      	cmp	r3, #0
 8055df4:	d102      	bne.n	8055dfc <xTaskResumeAll+0x24>
 8055df6:	4b7b      	ldr	r3, [pc, #492]	; (8055fe4 <xTaskResumeAll+0x20c>)
 8055df8:	4798      	blx	r3
 8055dfa:	e7fe      	b.n	8055dfa <xTaskResumeAll+0x22>
 8055dfc:	4b78      	ldr	r3, [pc, #480]	; (8055fe0 <xTaskResumeAll+0x208>)
 8055dfe:	681b      	ldr	r3, [r3, #0]
 8055e00:	3b01      	subs	r3, #1
 8055e02:	4a77      	ldr	r2, [pc, #476]	; (8055fe0 <xTaskResumeAll+0x208>)
 8055e04:	6013      	str	r3, [r2, #0]
 8055e06:	4b76      	ldr	r3, [pc, #472]	; (8055fe0 <xTaskResumeAll+0x208>)
 8055e08:	681b      	ldr	r3, [r3, #0]
 8055e0a:	2b00      	cmp	r3, #0
 8055e0c:	f040 80df 	bne.w	8055fce <xTaskResumeAll+0x1f6>
 8055e10:	4b75      	ldr	r3, [pc, #468]	; (8055fe8 <xTaskResumeAll+0x210>)
 8055e12:	681b      	ldr	r3, [r3, #0]
 8055e14:	2b00      	cmp	r3, #0
 8055e16:	f000 80da 	beq.w	8055fce <xTaskResumeAll+0x1f6>
 8055e1a:	e0a9      	b.n	8055f70 <xTaskResumeAll+0x198>
 8055e1c:	4b73      	ldr	r3, [pc, #460]	; (8055fec <xTaskResumeAll+0x214>)
 8055e1e:	68db      	ldr	r3, [r3, #12]
 8055e20:	68db      	ldr	r3, [r3, #12]
 8055e22:	61fb      	str	r3, [r7, #28]
 8055e24:	69fb      	ldr	r3, [r7, #28]
 8055e26:	f8d3 32b8 	ldr.w	r3, [r3, #696]	; 0x2b8
 8055e2a:	60fb      	str	r3, [r7, #12]
 8055e2c:	69fb      	ldr	r3, [r7, #28]
 8055e2e:	f8d3 32ac 	ldr.w	r3, [r3, #684]	; 0x2ac
 8055e32:	69fa      	ldr	r2, [r7, #28]
 8055e34:	f8d2 22b0 	ldr.w	r2, [r2, #688]	; 0x2b0
 8055e38:	609a      	str	r2, [r3, #8]
 8055e3a:	69fb      	ldr	r3, [r7, #28]
 8055e3c:	f8d3 32b0 	ldr.w	r3, [r3, #688]	; 0x2b0
 8055e40:	69fa      	ldr	r2, [r7, #28]
 8055e42:	f8d2 22ac 	ldr.w	r2, [r2, #684]	; 0x2ac
 8055e46:	605a      	str	r2, [r3, #4]
 8055e48:	68fb      	ldr	r3, [r7, #12]
 8055e4a:	685a      	ldr	r2, [r3, #4]
 8055e4c:	69fb      	ldr	r3, [r7, #28]
 8055e4e:	f503 732a 	add.w	r3, r3, #680	; 0x2a8
 8055e52:	429a      	cmp	r2, r3
 8055e54:	d104      	bne.n	8055e60 <xTaskResumeAll+0x88>
 8055e56:	69fb      	ldr	r3, [r7, #28]
 8055e58:	f8d3 22b0 	ldr.w	r2, [r3, #688]	; 0x2b0
 8055e5c:	68fb      	ldr	r3, [r7, #12]
 8055e5e:	605a      	str	r2, [r3, #4]
 8055e60:	69fb      	ldr	r3, [r7, #28]
 8055e62:	2200      	movs	r2, #0
 8055e64:	f8c3 22b8 	str.w	r2, [r3, #696]	; 0x2b8
 8055e68:	68fb      	ldr	r3, [r7, #12]
 8055e6a:	681b      	ldr	r3, [r3, #0]
 8055e6c:	1e5a      	subs	r2, r3, #1
 8055e6e:	68fb      	ldr	r3, [r7, #12]
 8055e70:	601a      	str	r2, [r3, #0]
 8055e72:	69fb      	ldr	r3, [r7, #28]
 8055e74:	f8d3 32a4 	ldr.w	r3, [r3, #676]	; 0x2a4
 8055e78:	60bb      	str	r3, [r7, #8]
 8055e7a:	69fb      	ldr	r3, [r7, #28]
 8055e7c:	f8d3 3298 	ldr.w	r3, [r3, #664]	; 0x298
 8055e80:	69fa      	ldr	r2, [r7, #28]
 8055e82:	f8d2 229c 	ldr.w	r2, [r2, #668]	; 0x29c
 8055e86:	609a      	str	r2, [r3, #8]
 8055e88:	69fb      	ldr	r3, [r7, #28]
 8055e8a:	f8d3 329c 	ldr.w	r3, [r3, #668]	; 0x29c
 8055e8e:	69fa      	ldr	r2, [r7, #28]
 8055e90:	f8d2 2298 	ldr.w	r2, [r2, #664]	; 0x298
 8055e94:	605a      	str	r2, [r3, #4]
 8055e96:	68bb      	ldr	r3, [r7, #8]
 8055e98:	685a      	ldr	r2, [r3, #4]
 8055e9a:	69fb      	ldr	r3, [r7, #28]
 8055e9c:	f503 7325 	add.w	r3, r3, #660	; 0x294
 8055ea0:	429a      	cmp	r2, r3
 8055ea2:	d104      	bne.n	8055eae <xTaskResumeAll+0xd6>
 8055ea4:	69fb      	ldr	r3, [r7, #28]
 8055ea6:	f8d3 229c 	ldr.w	r2, [r3, #668]	; 0x29c
 8055eaa:	68bb      	ldr	r3, [r7, #8]
 8055eac:	605a      	str	r2, [r3, #4]
 8055eae:	69fb      	ldr	r3, [r7, #28]
 8055eb0:	2200      	movs	r2, #0
 8055eb2:	f8c3 22a4 	str.w	r2, [r3, #676]	; 0x2a4
 8055eb6:	68bb      	ldr	r3, [r7, #8]
 8055eb8:	681b      	ldr	r3, [r3, #0]
 8055eba:	1e5a      	subs	r2, r3, #1
 8055ebc:	68bb      	ldr	r3, [r7, #8]
 8055ebe:	601a      	str	r2, [r3, #0]
 8055ec0:	69fb      	ldr	r3, [r7, #28]
 8055ec2:	f8d3 22bc 	ldr.w	r2, [r3, #700]	; 0x2bc
 8055ec6:	4b4a      	ldr	r3, [pc, #296]	; (8055ff0 <xTaskResumeAll+0x218>)
 8055ec8:	681b      	ldr	r3, [r3, #0]
 8055eca:	429a      	cmp	r2, r3
 8055ecc:	d904      	bls.n	8055ed8 <xTaskResumeAll+0x100>
 8055ece:	69fb      	ldr	r3, [r7, #28]
 8055ed0:	f8d3 32bc 	ldr.w	r3, [r3, #700]	; 0x2bc
 8055ed4:	4a46      	ldr	r2, [pc, #280]	; (8055ff0 <xTaskResumeAll+0x218>)
 8055ed6:	6013      	str	r3, [r2, #0]
 8055ed8:	69fb      	ldr	r3, [r7, #28]
 8055eda:	f8d3 22bc 	ldr.w	r2, [r3, #700]	; 0x2bc
 8055ede:	4945      	ldr	r1, [pc, #276]	; (8055ff4 <xTaskResumeAll+0x21c>)
 8055ee0:	4613      	mov	r3, r2
 8055ee2:	009b      	lsls	r3, r3, #2
 8055ee4:	4413      	add	r3, r2
 8055ee6:	009b      	lsls	r3, r3, #2
 8055ee8:	440b      	add	r3, r1
 8055eea:	3304      	adds	r3, #4
 8055eec:	681b      	ldr	r3, [r3, #0]
 8055eee:	607b      	str	r3, [r7, #4]
 8055ef0:	69fb      	ldr	r3, [r7, #28]
 8055ef2:	687a      	ldr	r2, [r7, #4]
 8055ef4:	f8c3 2298 	str.w	r2, [r3, #664]	; 0x298
 8055ef8:	687b      	ldr	r3, [r7, #4]
 8055efa:	689a      	ldr	r2, [r3, #8]
 8055efc:	69fb      	ldr	r3, [r7, #28]
 8055efe:	f8c3 229c 	str.w	r2, [r3, #668]	; 0x29c
 8055f02:	687b      	ldr	r3, [r7, #4]
 8055f04:	689b      	ldr	r3, [r3, #8]
 8055f06:	69fa      	ldr	r2, [r7, #28]
 8055f08:	f502 7225 	add.w	r2, r2, #660	; 0x294
 8055f0c:	605a      	str	r2, [r3, #4]
 8055f0e:	69fb      	ldr	r3, [r7, #28]
 8055f10:	f503 7225 	add.w	r2, r3, #660	; 0x294
 8055f14:	687b      	ldr	r3, [r7, #4]
 8055f16:	609a      	str	r2, [r3, #8]
 8055f18:	69fb      	ldr	r3, [r7, #28]
 8055f1a:	f8d3 22bc 	ldr.w	r2, [r3, #700]	; 0x2bc
 8055f1e:	4613      	mov	r3, r2
 8055f20:	009b      	lsls	r3, r3, #2
 8055f22:	4413      	add	r3, r2
 8055f24:	009b      	lsls	r3, r3, #2
 8055f26:	4a33      	ldr	r2, [pc, #204]	; (8055ff4 <xTaskResumeAll+0x21c>)
 8055f28:	441a      	add	r2, r3
 8055f2a:	69fb      	ldr	r3, [r7, #28]
 8055f2c:	f8c3 22a4 	str.w	r2, [r3, #676]	; 0x2a4
 8055f30:	69fb      	ldr	r3, [r7, #28]
 8055f32:	f8d3 22bc 	ldr.w	r2, [r3, #700]	; 0x2bc
 8055f36:	492f      	ldr	r1, [pc, #188]	; (8055ff4 <xTaskResumeAll+0x21c>)
 8055f38:	4613      	mov	r3, r2
 8055f3a:	009b      	lsls	r3, r3, #2
 8055f3c:	4413      	add	r3, r2
 8055f3e:	009b      	lsls	r3, r3, #2
 8055f40:	440b      	add	r3, r1
 8055f42:	681b      	ldr	r3, [r3, #0]
 8055f44:	1c59      	adds	r1, r3, #1
 8055f46:	482b      	ldr	r0, [pc, #172]	; (8055ff4 <xTaskResumeAll+0x21c>)
 8055f48:	4613      	mov	r3, r2
 8055f4a:	009b      	lsls	r3, r3, #2
 8055f4c:	4413      	add	r3, r2
 8055f4e:	009b      	lsls	r3, r3, #2
 8055f50:	4403      	add	r3, r0
 8055f52:	6019      	str	r1, [r3, #0]
 8055f54:	69fb      	ldr	r3, [r7, #28]
 8055f56:	f8d3 22bc 	ldr.w	r2, [r3, #700]	; 0x2bc
 8055f5a:	4b27      	ldr	r3, [pc, #156]	; (8055ff8 <xTaskResumeAll+0x220>)
 8055f5c:	681b      	ldr	r3, [r3, #0]
 8055f5e:	f8d3 32bc 	ldr.w	r3, [r3, #700]	; 0x2bc
 8055f62:	429a      	cmp	r2, r3
 8055f64:	d904      	bls.n	8055f70 <xTaskResumeAll+0x198>
 8055f66:	4a25      	ldr	r2, [pc, #148]	; (8055ffc <xTaskResumeAll+0x224>)
 8055f68:	693b      	ldr	r3, [r7, #16]
 8055f6a:	2101      	movs	r1, #1
 8055f6c:	f842 1023 	str.w	r1, [r2, r3, lsl #2]
 8055f70:	4b1e      	ldr	r3, [pc, #120]	; (8055fec <xTaskResumeAll+0x214>)
 8055f72:	681b      	ldr	r3, [r3, #0]
 8055f74:	2b00      	cmp	r3, #0
 8055f76:	f47f af51 	bne.w	8055e1c <xTaskResumeAll+0x44>
 8055f7a:	69fb      	ldr	r3, [r7, #28]
 8055f7c:	2b00      	cmp	r3, #0
 8055f7e:	d001      	beq.n	8055f84 <xTaskResumeAll+0x1ac>
 8055f80:	f001 ff43 	bl	8057e0a <prvResetNextTaskUnblockTime>
 8055f84:	4b1e      	ldr	r3, [pc, #120]	; (8056000 <xTaskResumeAll+0x228>)
 8055f86:	681b      	ldr	r3, [r3, #0]
 8055f88:	617b      	str	r3, [r7, #20]
 8055f8a:	697b      	ldr	r3, [r7, #20]
 8055f8c:	2b00      	cmp	r3, #0
 8055f8e:	d012      	beq.n	8055fb6 <xTaskResumeAll+0x1de>
 8055f90:	f000 feca 	bl	8056d28 <xTaskIncrementTick>
 8055f94:	4603      	mov	r3, r0
 8055f96:	2b00      	cmp	r3, #0
 8055f98:	d004      	beq.n	8055fa4 <xTaskResumeAll+0x1cc>
 8055f9a:	4a18      	ldr	r2, [pc, #96]	; (8055ffc <xTaskResumeAll+0x224>)
 8055f9c:	693b      	ldr	r3, [r7, #16]
 8055f9e:	2101      	movs	r1, #1
 8055fa0:	f842 1023 	str.w	r1, [r2, r3, lsl #2]
 8055fa4:	697b      	ldr	r3, [r7, #20]
 8055fa6:	3b01      	subs	r3, #1
 8055fa8:	617b      	str	r3, [r7, #20]
 8055faa:	697b      	ldr	r3, [r7, #20]
 8055fac:	2b00      	cmp	r3, #0
 8055fae:	d1ef      	bne.n	8055f90 <xTaskResumeAll+0x1b8>
 8055fb0:	4b13      	ldr	r3, [pc, #76]	; (8056000 <xTaskResumeAll+0x228>)
 8055fb2:	2200      	movs	r2, #0
 8055fb4:	601a      	str	r2, [r3, #0]
 8055fb6:	4a11      	ldr	r2, [pc, #68]	; (8055ffc <xTaskResumeAll+0x224>)
 8055fb8:	693b      	ldr	r3, [r7, #16]
 8055fba:	f852 3023 	ldr.w	r3, [r2, r3, lsl #2]
 8055fbe:	2b00      	cmp	r3, #0
 8055fc0:	d005      	beq.n	8055fce <xTaskResumeAll+0x1f6>
 8055fc2:	2301      	movs	r3, #1
 8055fc4:	61bb      	str	r3, [r7, #24]
 8055fc6:	4b0c      	ldr	r3, [pc, #48]	; (8055ff8 <xTaskResumeAll+0x220>)
 8055fc8:	681b      	ldr	r3, [r3, #0]
 8055fca:	4b0e      	ldr	r3, [pc, #56]	; (8056004 <xTaskResumeAll+0x22c>)
 8055fcc:	4798      	blx	r3
 8055fce:	4b0e      	ldr	r3, [pc, #56]	; (8056008 <xTaskResumeAll+0x230>)
 8055fd0:	4798      	blx	r3
 8055fd2:	69bb      	ldr	r3, [r7, #24]
 8055fd4:	4618      	mov	r0, r3
 8055fd6:	3720      	adds	r7, #32
 8055fd8:	46bd      	mov	sp, r7
 8055fda:	bd80      	pop	{r7, pc}
 8055fdc:	0805ecc5 	.word	0x0805ecc5
 8055fe0:	200002dc 	.word	0x200002dc
 8055fe4:	0805f1c7 	.word	0x0805f1c7
 8055fe8:	200002b4 	.word	0x200002b4
 8055fec:	20000274 	.word	0x20000274
 8055ff0:	200002bc 	.word	0x200002bc
 8055ff4:	20000104 	.word	0x20000104
 8055ff8:	20000100 	.word	0x20000100
 8055ffc:	200002c8 	.word	0x200002c8
 8056000:	200002c4 	.word	0x200002c4
 8056004:	0805eca5 	.word	0x0805eca5
 8056008:	0805eced 	.word	0x0805eced

0805600c <xTaskGetTickCount>:
 805600c:	b480      	push	{r7}
 805600e:	b083      	sub	sp, #12
 8056010:	af00      	add	r7, sp, #0
 8056012:	4b04      	ldr	r3, [pc, #16]	; (8056024 <xTaskGetTickCount+0x18>)
 8056014:	681b      	ldr	r3, [r3, #0]
 8056016:	607b      	str	r3, [r7, #4]
 8056018:	687b      	ldr	r3, [r7, #4]
 805601a:	4618      	mov	r0, r3
 805601c:	370c      	adds	r7, #12
 805601e:	46bd      	mov	sp, r7
 8056020:	bc80      	pop	{r7}
 8056022:	4770      	bx	lr
 8056024:	200002b8 	.word	0x200002b8

08056028 <xTaskGetTickCountFromISR>:
 8056028:	b580      	push	{r7, lr}
 805602a:	b082      	sub	sp, #8
 805602c:	af00      	add	r7, sp, #0
 805602e:	4b06      	ldr	r3, [pc, #24]	; (8056048 <xTaskGetTickCountFromISR+0x20>)
 8056030:	4798      	blx	r3
 8056032:	2300      	movs	r3, #0
 8056034:	607b      	str	r3, [r7, #4]
 8056036:	4b05      	ldr	r3, [pc, #20]	; (805604c <xTaskGetTickCountFromISR+0x24>)
 8056038:	681b      	ldr	r3, [r3, #0]
 805603a:	603b      	str	r3, [r7, #0]
 805603c:	683b      	ldr	r3, [r7, #0]
 805603e:	4618      	mov	r0, r3
 8056040:	3708      	adds	r7, #8
 8056042:	46bd      	mov	sp, r7
 8056044:	bd80      	pop	{r7, pc}
 8056046:	bf00      	nop
 8056048:	080607fd 	.word	0x080607fd
 805604c:	200002b8 	.word	0x200002b8

08056050 <uxTaskGetNumberOfTasks>:
 8056050:	b480      	push	{r7}
 8056052:	af00      	add	r7, sp, #0
 8056054:	4b02      	ldr	r3, [pc, #8]	; (8056060 <uxTaskGetNumberOfTasks+0x10>)
 8056056:	681b      	ldr	r3, [r3, #0]
 8056058:	4618      	mov	r0, r3
 805605a:	46bd      	mov	sp, r7
 805605c:	bc80      	pop	{r7}
 805605e:	4770      	bx	lr
 8056060:	200002b4 	.word	0x200002b4

08056064 <pcTaskGetName>:
 8056064:	b580      	push	{r7, lr}
 8056066:	b084      	sub	sp, #16
 8056068:	af00      	add	r7, sp, #0
 805606a:	6078      	str	r0, [r7, #4]
 805606c:	687b      	ldr	r3, [r7, #4]
 805606e:	2b00      	cmp	r3, #0
 8056070:	d102      	bne.n	8056078 <pcTaskGetName+0x14>
 8056072:	4b09      	ldr	r3, [pc, #36]	; (8056098 <pcTaskGetName+0x34>)
 8056074:	681b      	ldr	r3, [r3, #0]
 8056076:	e000      	b.n	805607a <pcTaskGetName+0x16>
 8056078:	687b      	ldr	r3, [r7, #4]
 805607a:	60fb      	str	r3, [r7, #12]
 805607c:	68fb      	ldr	r3, [r7, #12]
 805607e:	2b00      	cmp	r3, #0
 8056080:	d102      	bne.n	8056088 <pcTaskGetName+0x24>
 8056082:	4b06      	ldr	r3, [pc, #24]	; (805609c <pcTaskGetName+0x38>)
 8056084:	4798      	blx	r3
 8056086:	e7fe      	b.n	8056086 <pcTaskGetName+0x22>
 8056088:	68fb      	ldr	r3, [r7, #12]
 805608a:	f503 7331 	add.w	r3, r3, #708	; 0x2c4
 805608e:	4618      	mov	r0, r3
 8056090:	3710      	adds	r7, #16
 8056092:	46bd      	mov	sp, r7
 8056094:	bd80      	pop	{r7, pc}
 8056096:	bf00      	nop
 8056098:	20000100 	.word	0x20000100
 805609c:	0805f1c7 	.word	0x0805f1c7

080560a0 <uxTaskGetStackHighWaterMark>:
 80560a0:	b580      	push	{r7, lr}
 80560a2:	b086      	sub	sp, #24
 80560a4:	af00      	add	r7, sp, #0
 80560a6:	6078      	str	r0, [r7, #4]
 80560a8:	687b      	ldr	r3, [r7, #4]
 80560aa:	2b00      	cmp	r3, #0
 80560ac:	d102      	bne.n	80560b4 <uxTaskGetStackHighWaterMark+0x14>
 80560ae:	4b09      	ldr	r3, [pc, #36]	; (80560d4 <uxTaskGetStackHighWaterMark+0x34>)
 80560b0:	681b      	ldr	r3, [r3, #0]
 80560b2:	e000      	b.n	80560b6 <uxTaskGetStackHighWaterMark+0x16>
 80560b4:	687b      	ldr	r3, [r7, #4]
 80560b6:	617b      	str	r3, [r7, #20]
 80560b8:	697b      	ldr	r3, [r7, #20]
 80560ba:	f8d3 32c0 	ldr.w	r3, [r3, #704]	; 0x2c0
 80560be:	613b      	str	r3, [r7, #16]
 80560c0:	6938      	ldr	r0, [r7, #16]
 80560c2:	f001 fe87 	bl	8057dd4 <prvTaskCheckFreeStackSpace>
 80560c6:	4603      	mov	r3, r0
 80560c8:	60fb      	str	r3, [r7, #12]
 80560ca:	68fb      	ldr	r3, [r7, #12]
 80560cc:	4618      	mov	r0, r3
 80560ce:	3718      	adds	r7, #24
 80560d0:	46bd      	mov	sp, r7
 80560d2:	bd80      	pop	{r7, pc}
 80560d4:	20000100 	.word	0x20000100

080560d8 <uxTaskGetSystemState>:
 80560d8:	b580      	push	{r7, lr}
 80560da:	b086      	sub	sp, #24
 80560dc:	af00      	add	r7, sp, #0
 80560de:	60f8      	str	r0, [r7, #12]
 80560e0:	60b9      	str	r1, [r7, #8]
 80560e2:	607a      	str	r2, [r7, #4]
 80560e4:	2300      	movs	r3, #0
 80560e6:	617b      	str	r3, [r7, #20]
 80560e8:	2310      	movs	r3, #16
 80560ea:	613b      	str	r3, [r7, #16]
 80560ec:	f7ff fe66 	bl	8055dbc <vTaskSuspendAll>
 80560f0:	4b3a      	ldr	r3, [pc, #232]	; (80561dc <uxTaskGetSystemState+0x104>)
 80560f2:	681b      	ldr	r3, [r3, #0]
 80560f4:	68ba      	ldr	r2, [r7, #8]
 80560f6:	429a      	cmp	r2, r3
 80560f8:	d368      	bcc.n	80561cc <uxTaskGetSystemState+0xf4>
 80560fa:	693b      	ldr	r3, [r7, #16]
 80560fc:	3b01      	subs	r3, #1
 80560fe:	613b      	str	r3, [r7, #16]
 8056100:	697a      	ldr	r2, [r7, #20]
 8056102:	4613      	mov	r3, r2
 8056104:	00db      	lsls	r3, r3, #3
 8056106:	4413      	add	r3, r2
 8056108:	009b      	lsls	r3, r3, #2
 805610a:	461a      	mov	r2, r3
 805610c:	68fb      	ldr	r3, [r7, #12]
 805610e:	1898      	adds	r0, r3, r2
 8056110:	693a      	ldr	r2, [r7, #16]
 8056112:	4613      	mov	r3, r2
 8056114:	009b      	lsls	r3, r3, #2
 8056116:	4413      	add	r3, r2
 8056118:	009b      	lsls	r3, r3, #2
 805611a:	4a31      	ldr	r2, [pc, #196]	; (80561e0 <uxTaskGetSystemState+0x108>)
 805611c:	4413      	add	r3, r2
 805611e:	2201      	movs	r2, #1
 8056120:	4619      	mov	r1, r3
 8056122:	f001 fe07 	bl	8057d34 <prvListTasksWithinSingleList>
 8056126:	4602      	mov	r2, r0
 8056128:	697b      	ldr	r3, [r7, #20]
 805612a:	4413      	add	r3, r2
 805612c:	617b      	str	r3, [r7, #20]
 805612e:	693b      	ldr	r3, [r7, #16]
 8056130:	2b00      	cmp	r3, #0
 8056132:	d1e2      	bne.n	80560fa <uxTaskGetSystemState+0x22>
 8056134:	697a      	ldr	r2, [r7, #20]
 8056136:	4613      	mov	r3, r2
 8056138:	00db      	lsls	r3, r3, #3
 805613a:	4413      	add	r3, r2
 805613c:	009b      	lsls	r3, r3, #2
 805613e:	461a      	mov	r2, r3
 8056140:	68fb      	ldr	r3, [r7, #12]
 8056142:	4413      	add	r3, r2
 8056144:	4a27      	ldr	r2, [pc, #156]	; (80561e4 <uxTaskGetSystemState+0x10c>)
 8056146:	6811      	ldr	r1, [r2, #0]
 8056148:	2202      	movs	r2, #2
 805614a:	4618      	mov	r0, r3
 805614c:	f001 fdf2 	bl	8057d34 <prvListTasksWithinSingleList>
 8056150:	4602      	mov	r2, r0
 8056152:	697b      	ldr	r3, [r7, #20]
 8056154:	4413      	add	r3, r2
 8056156:	617b      	str	r3, [r7, #20]
 8056158:	697a      	ldr	r2, [r7, #20]
 805615a:	4613      	mov	r3, r2
 805615c:	00db      	lsls	r3, r3, #3
 805615e:	4413      	add	r3, r2
 8056160:	009b      	lsls	r3, r3, #2
 8056162:	461a      	mov	r2, r3
 8056164:	68fb      	ldr	r3, [r7, #12]
 8056166:	4413      	add	r3, r2
 8056168:	4a1f      	ldr	r2, [pc, #124]	; (80561e8 <uxTaskGetSystemState+0x110>)
 805616a:	6811      	ldr	r1, [r2, #0]
 805616c:	2202      	movs	r2, #2
 805616e:	4618      	mov	r0, r3
 8056170:	f001 fde0 	bl	8057d34 <prvListTasksWithinSingleList>
 8056174:	4602      	mov	r2, r0
 8056176:	697b      	ldr	r3, [r7, #20]
 8056178:	4413      	add	r3, r2
 805617a:	617b      	str	r3, [r7, #20]
 805617c:	697a      	ldr	r2, [r7, #20]
 805617e:	4613      	mov	r3, r2
 8056180:	00db      	lsls	r3, r3, #3
 8056182:	4413      	add	r3, r2
 8056184:	009b      	lsls	r3, r3, #2
 8056186:	461a      	mov	r2, r3
 8056188:	68fb      	ldr	r3, [r7, #12]
 805618a:	4413      	add	r3, r2
 805618c:	2204      	movs	r2, #4
 805618e:	4917      	ldr	r1, [pc, #92]	; (80561ec <uxTaskGetSystemState+0x114>)
 8056190:	4618      	mov	r0, r3
 8056192:	f001 fdcf 	bl	8057d34 <prvListTasksWithinSingleList>
 8056196:	4602      	mov	r2, r0
 8056198:	697b      	ldr	r3, [r7, #20]
 805619a:	4413      	add	r3, r2
 805619c:	617b      	str	r3, [r7, #20]
 805619e:	697a      	ldr	r2, [r7, #20]
 80561a0:	4613      	mov	r3, r2
 80561a2:	00db      	lsls	r3, r3, #3
 80561a4:	4413      	add	r3, r2
 80561a6:	009b      	lsls	r3, r3, #2
 80561a8:	461a      	mov	r2, r3
 80561aa:	68fb      	ldr	r3, [r7, #12]
 80561ac:	4413      	add	r3, r2
 80561ae:	2203      	movs	r2, #3
 80561b0:	490f      	ldr	r1, [pc, #60]	; (80561f0 <uxTaskGetSystemState+0x118>)
 80561b2:	4618      	mov	r0, r3
 80561b4:	f001 fdbe 	bl	8057d34 <prvListTasksWithinSingleList>
 80561b8:	4602      	mov	r2, r0
 80561ba:	697b      	ldr	r3, [r7, #20]
 80561bc:	4413      	add	r3, r2
 80561be:	617b      	str	r3, [r7, #20]
 80561c0:	687b      	ldr	r3, [r7, #4]
 80561c2:	2b00      	cmp	r3, #0
 80561c4:	d002      	beq.n	80561cc <uxTaskGetSystemState+0xf4>
 80561c6:	687b      	ldr	r3, [r7, #4]
 80561c8:	2200      	movs	r2, #0
 80561ca:	601a      	str	r2, [r3, #0]
 80561cc:	f7ff fe04 	bl	8055dd8 <xTaskResumeAll>
 80561d0:	697b      	ldr	r3, [r7, #20]
 80561d2:	4618      	mov	r0, r3
 80561d4:	3718      	adds	r7, #24
 80561d6:	46bd      	mov	sp, r7
 80561d8:	bd80      	pop	{r7, pc}
 80561da:	bf00      	nop
 80561dc:	200002b4 	.word	0x200002b4
 80561e0:	20000104 	.word	0x20000104
 80561e4:	2000026c 	.word	0x2000026c
 80561e8:	20000270 	.word	0x20000270
 80561ec:	20000288 	.word	0x20000288
 80561f0:	200002a0 	.word	0x200002a0

080561f4 <xTaskGenericNotify>:
 80561f4:	b580      	push	{r7, lr}
 80561f6:	b08a      	sub	sp, #40	; 0x28
 80561f8:	af00      	add	r7, sp, #0
 80561fa:	60f8      	str	r0, [r7, #12]
 80561fc:	60b9      	str	r1, [r7, #8]
 80561fe:	607a      	str	r2, [r7, #4]
 8056200:	70fb      	strb	r3, [r7, #3]
 8056202:	2301      	movs	r3, #1
 8056204:	627b      	str	r3, [r7, #36]	; 0x24
 8056206:	68bb      	ldr	r3, [r7, #8]
 8056208:	2b00      	cmp	r3, #0
 805620a:	d002      	beq.n	8056212 <xTaskGenericNotify+0x1e>
 805620c:	4b81      	ldr	r3, [pc, #516]	; (8056414 <xTaskGenericNotify+0x220>)
 805620e:	4798      	blx	r3
 8056210:	e7fe      	b.n	8056210 <xTaskGenericNotify+0x1c>
 8056212:	68fb      	ldr	r3, [r7, #12]
 8056214:	2b00      	cmp	r3, #0
 8056216:	d102      	bne.n	805621e <xTaskGenericNotify+0x2a>
 8056218:	4b7e      	ldr	r3, [pc, #504]	; (8056414 <xTaskGenericNotify+0x220>)
 805621a:	4798      	blx	r3
 805621c:	e7fe      	b.n	805621c <xTaskGenericNotify+0x28>
 805621e:	68fb      	ldr	r3, [r7, #12]
 8056220:	623b      	str	r3, [r7, #32]
 8056222:	4b7d      	ldr	r3, [pc, #500]	; (8056418 <xTaskGenericNotify+0x224>)
 8056224:	4798      	blx	r3
 8056226:	6b3b      	ldr	r3, [r7, #48]	; 0x30
 8056228:	2b00      	cmp	r3, #0
 805622a:	d007      	beq.n	805623c <xTaskGenericNotify+0x48>
 805622c:	6a3a      	ldr	r2, [r7, #32]
 805622e:	68bb      	ldr	r3, [r7, #8]
 8056230:	33b8      	adds	r3, #184	; 0xb8
 8056232:	009b      	lsls	r3, r3, #2
 8056234:	4413      	add	r3, r2
 8056236:	685a      	ldr	r2, [r3, #4]
 8056238:	6b3b      	ldr	r3, [r7, #48]	; 0x30
 805623a:	601a      	str	r2, [r3, #0]
 805623c:	6a3a      	ldr	r2, [r7, #32]
 805623e:	68bb      	ldr	r3, [r7, #8]
 8056240:	4413      	add	r3, r2
 8056242:	f503 733a 	add.w	r3, r3, #744	; 0x2e8
 8056246:	781b      	ldrb	r3, [r3, #0]
 8056248:	77fb      	strb	r3, [r7, #31]
 805624a:	6a3a      	ldr	r2, [r7, #32]
 805624c:	68bb      	ldr	r3, [r7, #8]
 805624e:	4413      	add	r3, r2
 8056250:	f503 733a 	add.w	r3, r3, #744	; 0x2e8
 8056254:	2202      	movs	r2, #2
 8056256:	701a      	strb	r2, [r3, #0]
 8056258:	78fb      	ldrb	r3, [r7, #3]
 805625a:	2b04      	cmp	r3, #4
 805625c:	d032      	beq.n	80562c4 <xTaskGenericNotify+0xd0>
 805625e:	2b04      	cmp	r3, #4
 8056260:	dc3e      	bgt.n	80562e0 <xTaskGenericNotify+0xec>
 8056262:	2b03      	cmp	r3, #3
 8056264:	d026      	beq.n	80562b4 <xTaskGenericNotify+0xc0>
 8056266:	2b03      	cmp	r3, #3
 8056268:	dc3a      	bgt.n	80562e0 <xTaskGenericNotify+0xec>
 805626a:	2b02      	cmp	r3, #2
 805626c:	d014      	beq.n	8056298 <xTaskGenericNotify+0xa4>
 805626e:	2b02      	cmp	r3, #2
 8056270:	dc36      	bgt.n	80562e0 <xTaskGenericNotify+0xec>
 8056272:	2b00      	cmp	r3, #0
 8056274:	d03b      	beq.n	80562ee <xTaskGenericNotify+0xfa>
 8056276:	2b01      	cmp	r3, #1
 8056278:	d132      	bne.n	80562e0 <xTaskGenericNotify+0xec>
 805627a:	6a3a      	ldr	r2, [r7, #32]
 805627c:	68bb      	ldr	r3, [r7, #8]
 805627e:	33b8      	adds	r3, #184	; 0xb8
 8056280:	009b      	lsls	r3, r3, #2
 8056282:	4413      	add	r3, r2
 8056284:	685a      	ldr	r2, [r3, #4]
 8056286:	687b      	ldr	r3, [r7, #4]
 8056288:	431a      	orrs	r2, r3
 805628a:	6a39      	ldr	r1, [r7, #32]
 805628c:	68bb      	ldr	r3, [r7, #8]
 805628e:	33b8      	adds	r3, #184	; 0xb8
 8056290:	009b      	lsls	r3, r3, #2
 8056292:	440b      	add	r3, r1
 8056294:	605a      	str	r2, [r3, #4]
 8056296:	e02d      	b.n	80562f4 <xTaskGenericNotify+0x100>
 8056298:	6a3a      	ldr	r2, [r7, #32]
 805629a:	68bb      	ldr	r3, [r7, #8]
 805629c:	33b8      	adds	r3, #184	; 0xb8
 805629e:	009b      	lsls	r3, r3, #2
 80562a0:	4413      	add	r3, r2
 80562a2:	685b      	ldr	r3, [r3, #4]
 80562a4:	1c5a      	adds	r2, r3, #1
 80562a6:	6a39      	ldr	r1, [r7, #32]
 80562a8:	68bb      	ldr	r3, [r7, #8]
 80562aa:	33b8      	adds	r3, #184	; 0xb8
 80562ac:	009b      	lsls	r3, r3, #2
 80562ae:	440b      	add	r3, r1
 80562b0:	605a      	str	r2, [r3, #4]
 80562b2:	e01f      	b.n	80562f4 <xTaskGenericNotify+0x100>
 80562b4:	6a3a      	ldr	r2, [r7, #32]
 80562b6:	68bb      	ldr	r3, [r7, #8]
 80562b8:	33b8      	adds	r3, #184	; 0xb8
 80562ba:	009b      	lsls	r3, r3, #2
 80562bc:	4413      	add	r3, r2
 80562be:	687a      	ldr	r2, [r7, #4]
 80562c0:	605a      	str	r2, [r3, #4]
 80562c2:	e017      	b.n	80562f4 <xTaskGenericNotify+0x100>
 80562c4:	7ffb      	ldrb	r3, [r7, #31]
 80562c6:	2b02      	cmp	r3, #2
 80562c8:	d007      	beq.n	80562da <xTaskGenericNotify+0xe6>
 80562ca:	6a3a      	ldr	r2, [r7, #32]
 80562cc:	68bb      	ldr	r3, [r7, #8]
 80562ce:	33b8      	adds	r3, #184	; 0xb8
 80562d0:	009b      	lsls	r3, r3, #2
 80562d2:	4413      	add	r3, r2
 80562d4:	687a      	ldr	r2, [r7, #4]
 80562d6:	605a      	str	r2, [r3, #4]
 80562d8:	e00c      	b.n	80562f4 <xTaskGenericNotify+0x100>
 80562da:	2300      	movs	r3, #0
 80562dc:	627b      	str	r3, [r7, #36]	; 0x24
 80562de:	e009      	b.n	80562f4 <xTaskGenericNotify+0x100>
 80562e0:	4b4e      	ldr	r3, [pc, #312]	; (805641c <xTaskGenericNotify+0x228>)
 80562e2:	681b      	ldr	r3, [r3, #0]
 80562e4:	2b00      	cmp	r3, #0
 80562e6:	d004      	beq.n	80562f2 <xTaskGenericNotify+0xfe>
 80562e8:	4b4a      	ldr	r3, [pc, #296]	; (8056414 <xTaskGenericNotify+0x220>)
 80562ea:	4798      	blx	r3
 80562ec:	e7fe      	b.n	80562ec <xTaskGenericNotify+0xf8>
 80562ee:	bf00      	nop
 80562f0:	e000      	b.n	80562f4 <xTaskGenericNotify+0x100>
 80562f2:	bf00      	nop
 80562f4:	7ffb      	ldrb	r3, [r7, #31]
 80562f6:	2b01      	cmp	r3, #1
 80562f8:	f040 8084 	bne.w	8056404 <xTaskGenericNotify+0x210>
 80562fc:	6a3b      	ldr	r3, [r7, #32]
 80562fe:	f8d3 32a4 	ldr.w	r3, [r3, #676]	; 0x2a4
 8056302:	61bb      	str	r3, [r7, #24]
 8056304:	6a3b      	ldr	r3, [r7, #32]
 8056306:	f8d3 3298 	ldr.w	r3, [r3, #664]	; 0x298
 805630a:	6a3a      	ldr	r2, [r7, #32]
 805630c:	f8d2 229c 	ldr.w	r2, [r2, #668]	; 0x29c
 8056310:	609a      	str	r2, [r3, #8]
 8056312:	6a3b      	ldr	r3, [r7, #32]
 8056314:	f8d3 329c 	ldr.w	r3, [r3, #668]	; 0x29c
 8056318:	6a3a      	ldr	r2, [r7, #32]
 805631a:	f8d2 2298 	ldr.w	r2, [r2, #664]	; 0x298
 805631e:	605a      	str	r2, [r3, #4]
 8056320:	69bb      	ldr	r3, [r7, #24]
 8056322:	685a      	ldr	r2, [r3, #4]
 8056324:	6a3b      	ldr	r3, [r7, #32]
 8056326:	f503 7325 	add.w	r3, r3, #660	; 0x294
 805632a:	429a      	cmp	r2, r3
 805632c:	d104      	bne.n	8056338 <xTaskGenericNotify+0x144>
 805632e:	6a3b      	ldr	r3, [r7, #32]
 8056330:	f8d3 229c 	ldr.w	r2, [r3, #668]	; 0x29c
 8056334:	69bb      	ldr	r3, [r7, #24]
 8056336:	605a      	str	r2, [r3, #4]
 8056338:	6a3b      	ldr	r3, [r7, #32]
 805633a:	2200      	movs	r2, #0
 805633c:	f8c3 22a4 	str.w	r2, [r3, #676]	; 0x2a4
 8056340:	69bb      	ldr	r3, [r7, #24]
 8056342:	681b      	ldr	r3, [r3, #0]
 8056344:	1e5a      	subs	r2, r3, #1
 8056346:	69bb      	ldr	r3, [r7, #24]
 8056348:	601a      	str	r2, [r3, #0]
 805634a:	6a3b      	ldr	r3, [r7, #32]
 805634c:	f8d3 22bc 	ldr.w	r2, [r3, #700]	; 0x2bc
 8056350:	4b33      	ldr	r3, [pc, #204]	; (8056420 <xTaskGenericNotify+0x22c>)
 8056352:	681b      	ldr	r3, [r3, #0]
 8056354:	429a      	cmp	r2, r3
 8056356:	d904      	bls.n	8056362 <xTaskGenericNotify+0x16e>
 8056358:	6a3b      	ldr	r3, [r7, #32]
 805635a:	f8d3 32bc 	ldr.w	r3, [r3, #700]	; 0x2bc
 805635e:	4a30      	ldr	r2, [pc, #192]	; (8056420 <xTaskGenericNotify+0x22c>)
 8056360:	6013      	str	r3, [r2, #0]
 8056362:	6a3b      	ldr	r3, [r7, #32]
 8056364:	f8d3 22bc 	ldr.w	r2, [r3, #700]	; 0x2bc
 8056368:	492e      	ldr	r1, [pc, #184]	; (8056424 <xTaskGenericNotify+0x230>)
 805636a:	4613      	mov	r3, r2
 805636c:	009b      	lsls	r3, r3, #2
 805636e:	4413      	add	r3, r2
 8056370:	009b      	lsls	r3, r3, #2
 8056372:	440b      	add	r3, r1
 8056374:	3304      	adds	r3, #4
 8056376:	681b      	ldr	r3, [r3, #0]
 8056378:	617b      	str	r3, [r7, #20]
 805637a:	6a3b      	ldr	r3, [r7, #32]
 805637c:	697a      	ldr	r2, [r7, #20]
 805637e:	f8c3 2298 	str.w	r2, [r3, #664]	; 0x298
 8056382:	697b      	ldr	r3, [r7, #20]
 8056384:	689a      	ldr	r2, [r3, #8]
 8056386:	6a3b      	ldr	r3, [r7, #32]
 8056388:	f8c3 229c 	str.w	r2, [r3, #668]	; 0x29c
 805638c:	697b      	ldr	r3, [r7, #20]
 805638e:	689b      	ldr	r3, [r3, #8]
 8056390:	6a3a      	ldr	r2, [r7, #32]
 8056392:	f502 7225 	add.w	r2, r2, #660	; 0x294
 8056396:	605a      	str	r2, [r3, #4]
 8056398:	6a3b      	ldr	r3, [r7, #32]
 805639a:	f503 7225 	add.w	r2, r3, #660	; 0x294
 805639e:	697b      	ldr	r3, [r7, #20]
 80563a0:	609a      	str	r2, [r3, #8]
 80563a2:	6a3b      	ldr	r3, [r7, #32]
 80563a4:	f8d3 22bc 	ldr.w	r2, [r3, #700]	; 0x2bc
 80563a8:	4613      	mov	r3, r2
 80563aa:	009b      	lsls	r3, r3, #2
 80563ac:	4413      	add	r3, r2
 80563ae:	009b      	lsls	r3, r3, #2
 80563b0:	4a1c      	ldr	r2, [pc, #112]	; (8056424 <xTaskGenericNotify+0x230>)
 80563b2:	441a      	add	r2, r3
 80563b4:	6a3b      	ldr	r3, [r7, #32]
 80563b6:	f8c3 22a4 	str.w	r2, [r3, #676]	; 0x2a4
 80563ba:	6a3b      	ldr	r3, [r7, #32]
 80563bc:	f8d3 22bc 	ldr.w	r2, [r3, #700]	; 0x2bc
 80563c0:	4918      	ldr	r1, [pc, #96]	; (8056424 <xTaskGenericNotify+0x230>)
 80563c2:	4613      	mov	r3, r2
 80563c4:	009b      	lsls	r3, r3, #2
 80563c6:	4413      	add	r3, r2
 80563c8:	009b      	lsls	r3, r3, #2
 80563ca:	440b      	add	r3, r1
 80563cc:	681b      	ldr	r3, [r3, #0]
 80563ce:	1c59      	adds	r1, r3, #1
 80563d0:	4814      	ldr	r0, [pc, #80]	; (8056424 <xTaskGenericNotify+0x230>)
 80563d2:	4613      	mov	r3, r2
 80563d4:	009b      	lsls	r3, r3, #2
 80563d6:	4413      	add	r3, r2
 80563d8:	009b      	lsls	r3, r3, #2
 80563da:	4403      	add	r3, r0
 80563dc:	6019      	str	r1, [r3, #0]
 80563de:	6a3b      	ldr	r3, [r7, #32]
 80563e0:	f8d3 32b8 	ldr.w	r3, [r3, #696]	; 0x2b8
 80563e4:	2b00      	cmp	r3, #0
 80563e6:	d002      	beq.n	80563ee <xTaskGenericNotify+0x1fa>
 80563e8:	4b0a      	ldr	r3, [pc, #40]	; (8056414 <xTaskGenericNotify+0x220>)
 80563ea:	4798      	blx	r3
 80563ec:	e7fe      	b.n	80563ec <xTaskGenericNotify+0x1f8>
 80563ee:	4b0e      	ldr	r3, [pc, #56]	; (8056428 <xTaskGenericNotify+0x234>)
 80563f0:	681b      	ldr	r3, [r3, #0]
 80563f2:	f8d3 22bc 	ldr.w	r2, [r3, #700]	; 0x2bc
 80563f6:	6a3b      	ldr	r3, [r7, #32]
 80563f8:	f8d3 32bc 	ldr.w	r3, [r3, #700]	; 0x2bc
 80563fc:	429a      	cmp	r2, r3
 80563fe:	d201      	bcs.n	8056404 <xTaskGenericNotify+0x210>
 8056400:	4b0a      	ldr	r3, [pc, #40]	; (805642c <xTaskGenericNotify+0x238>)
 8056402:	4798      	blx	r3
 8056404:	4b0a      	ldr	r3, [pc, #40]	; (8056430 <xTaskGenericNotify+0x23c>)
 8056406:	4798      	blx	r3
 8056408:	6a7b      	ldr	r3, [r7, #36]	; 0x24
 805640a:	4618      	mov	r0, r3
 805640c:	3728      	adds	r7, #40	; 0x28
 805640e:	46bd      	mov	sp, r7
 8056410:	bd80      	pop	{r7, pc}
 8056412:	bf00      	nop
 8056414:	0805f1c7 	.word	0x0805f1c7
 8056418:	0805ecc5 	.word	0x0805ecc5
 805641c:	200002b8 	.word	0x200002b8
 8056420:	200002bc 	.word	0x200002bc
 8056424:	20000104 	.word	0x20000104
 8056428:	20000100 	.word	0x20000100
 805642c:	0805eca5 	.word	0x0805eca5
 8056430:	0805eced 	.word	0x0805eced

08056434 <xTaskGenericNotifyFromISR>:
 8056434:	b580      	push	{r7, lr}
 8056436:	b08c      	sub	sp, #48	; 0x30
 8056438:	af00      	add	r7, sp, #0
 805643a:	60f8      	str	r0, [r7, #12]
 805643c:	60b9      	str	r1, [r7, #8]
 805643e:	607a      	str	r2, [r7, #4]
 8056440:	70fb      	strb	r3, [r7, #3]
 8056442:	2301      	movs	r3, #1
 8056444:	62fb      	str	r3, [r7, #44]	; 0x2c
 8056446:	68fb      	ldr	r3, [r7, #12]
 8056448:	2b00      	cmp	r3, #0
 805644a:	d102      	bne.n	8056452 <xTaskGenericNotifyFromISR+0x1e>
 805644c:	4b9a      	ldr	r3, [pc, #616]	; (80566b8 <xTaskGenericNotifyFromISR+0x284>)
 805644e:	4798      	blx	r3
 8056450:	e7fe      	b.n	8056450 <xTaskGenericNotifyFromISR+0x1c>
 8056452:	68bb      	ldr	r3, [r7, #8]
 8056454:	2b00      	cmp	r3, #0
 8056456:	d002      	beq.n	805645e <xTaskGenericNotifyFromISR+0x2a>
 8056458:	4b97      	ldr	r3, [pc, #604]	; (80566b8 <xTaskGenericNotifyFromISR+0x284>)
 805645a:	4798      	blx	r3
 805645c:	e7fe      	b.n	805645c <xTaskGenericNotifyFromISR+0x28>
 805645e:	4b97      	ldr	r3, [pc, #604]	; (80566bc <xTaskGenericNotifyFromISR+0x288>)
 8056460:	4798      	blx	r3
 8056462:	68fb      	ldr	r3, [r7, #12]
 8056464:	62bb      	str	r3, [r7, #40]	; 0x28
 8056466:	4b94      	ldr	r3, [pc, #592]	; (80566b8 <xTaskGenericNotifyFromISR+0x284>)
 8056468:	4798      	blx	r3
 805646a:	6278      	str	r0, [r7, #36]	; 0x24
 805646c:	6bbb      	ldr	r3, [r7, #56]	; 0x38
 805646e:	2b00      	cmp	r3, #0
 8056470:	d007      	beq.n	8056482 <xTaskGenericNotifyFromISR+0x4e>
 8056472:	6aba      	ldr	r2, [r7, #40]	; 0x28
 8056474:	68bb      	ldr	r3, [r7, #8]
 8056476:	33b8      	adds	r3, #184	; 0xb8
 8056478:	009b      	lsls	r3, r3, #2
 805647a:	4413      	add	r3, r2
 805647c:	685a      	ldr	r2, [r3, #4]
 805647e:	6bbb      	ldr	r3, [r7, #56]	; 0x38
 8056480:	601a      	str	r2, [r3, #0]
 8056482:	6aba      	ldr	r2, [r7, #40]	; 0x28
 8056484:	68bb      	ldr	r3, [r7, #8]
 8056486:	4413      	add	r3, r2
 8056488:	f503 733a 	add.w	r3, r3, #744	; 0x2e8
 805648c:	781b      	ldrb	r3, [r3, #0]
 805648e:	f887 3023 	strb.w	r3, [r7, #35]	; 0x23
 8056492:	6aba      	ldr	r2, [r7, #40]	; 0x28
 8056494:	68bb      	ldr	r3, [r7, #8]
 8056496:	4413      	add	r3, r2
 8056498:	f503 733a 	add.w	r3, r3, #744	; 0x2e8
 805649c:	2202      	movs	r2, #2
 805649e:	701a      	strb	r2, [r3, #0]
 80564a0:	78fb      	ldrb	r3, [r7, #3]
 80564a2:	2b04      	cmp	r3, #4
 80564a4:	d032      	beq.n	805650c <xTaskGenericNotifyFromISR+0xd8>
 80564a6:	2b04      	cmp	r3, #4
 80564a8:	dc3f      	bgt.n	805652a <xTaskGenericNotifyFromISR+0xf6>
 80564aa:	2b03      	cmp	r3, #3
 80564ac:	d026      	beq.n	80564fc <xTaskGenericNotifyFromISR+0xc8>
 80564ae:	2b03      	cmp	r3, #3
 80564b0:	dc3b      	bgt.n	805652a <xTaskGenericNotifyFromISR+0xf6>
 80564b2:	2b02      	cmp	r3, #2
 80564b4:	d014      	beq.n	80564e0 <xTaskGenericNotifyFromISR+0xac>
 80564b6:	2b02      	cmp	r3, #2
 80564b8:	dc37      	bgt.n	805652a <xTaskGenericNotifyFromISR+0xf6>
 80564ba:	2b00      	cmp	r3, #0
 80564bc:	d03c      	beq.n	8056538 <xTaskGenericNotifyFromISR+0x104>
 80564be:	2b01      	cmp	r3, #1
 80564c0:	d133      	bne.n	805652a <xTaskGenericNotifyFromISR+0xf6>
 80564c2:	6aba      	ldr	r2, [r7, #40]	; 0x28
 80564c4:	68bb      	ldr	r3, [r7, #8]
 80564c6:	33b8      	adds	r3, #184	; 0xb8
 80564c8:	009b      	lsls	r3, r3, #2
 80564ca:	4413      	add	r3, r2
 80564cc:	685a      	ldr	r2, [r3, #4]
 80564ce:	687b      	ldr	r3, [r7, #4]
 80564d0:	431a      	orrs	r2, r3
 80564d2:	6ab9      	ldr	r1, [r7, #40]	; 0x28
 80564d4:	68bb      	ldr	r3, [r7, #8]
 80564d6:	33b8      	adds	r3, #184	; 0xb8
 80564d8:	009b      	lsls	r3, r3, #2
 80564da:	440b      	add	r3, r1
 80564dc:	605a      	str	r2, [r3, #4]
 80564de:	e02e      	b.n	805653e <xTaskGenericNotifyFromISR+0x10a>
 80564e0:	6aba      	ldr	r2, [r7, #40]	; 0x28
 80564e2:	68bb      	ldr	r3, [r7, #8]
 80564e4:	33b8      	adds	r3, #184	; 0xb8
 80564e6:	009b      	lsls	r3, r3, #2
 80564e8:	4413      	add	r3, r2
 80564ea:	685b      	ldr	r3, [r3, #4]
 80564ec:	1c5a      	adds	r2, r3, #1
 80564ee:	6ab9      	ldr	r1, [r7, #40]	; 0x28
 80564f0:	68bb      	ldr	r3, [r7, #8]
 80564f2:	33b8      	adds	r3, #184	; 0xb8
 80564f4:	009b      	lsls	r3, r3, #2
 80564f6:	440b      	add	r3, r1
 80564f8:	605a      	str	r2, [r3, #4]
 80564fa:	e020      	b.n	805653e <xTaskGenericNotifyFromISR+0x10a>
 80564fc:	6aba      	ldr	r2, [r7, #40]	; 0x28
 80564fe:	68bb      	ldr	r3, [r7, #8]
 8056500:	33b8      	adds	r3, #184	; 0xb8
 8056502:	009b      	lsls	r3, r3, #2
 8056504:	4413      	add	r3, r2
 8056506:	687a      	ldr	r2, [r7, #4]
 8056508:	605a      	str	r2, [r3, #4]
 805650a:	e018      	b.n	805653e <xTaskGenericNotifyFromISR+0x10a>
 805650c:	f897 3023 	ldrb.w	r3, [r7, #35]	; 0x23
 8056510:	2b02      	cmp	r3, #2
 8056512:	d007      	beq.n	8056524 <xTaskGenericNotifyFromISR+0xf0>
 8056514:	6aba      	ldr	r2, [r7, #40]	; 0x28
 8056516:	68bb      	ldr	r3, [r7, #8]
 8056518:	33b8      	adds	r3, #184	; 0xb8
 805651a:	009b      	lsls	r3, r3, #2
 805651c:	4413      	add	r3, r2
 805651e:	687a      	ldr	r2, [r7, #4]
 8056520:	605a      	str	r2, [r3, #4]
 8056522:	e00c      	b.n	805653e <xTaskGenericNotifyFromISR+0x10a>
 8056524:	2300      	movs	r3, #0
 8056526:	62fb      	str	r3, [r7, #44]	; 0x2c
 8056528:	e009      	b.n	805653e <xTaskGenericNotifyFromISR+0x10a>
 805652a:	4b65      	ldr	r3, [pc, #404]	; (80566c0 <xTaskGenericNotifyFromISR+0x28c>)
 805652c:	681b      	ldr	r3, [r3, #0]
 805652e:	2b00      	cmp	r3, #0
 8056530:	d004      	beq.n	805653c <xTaskGenericNotifyFromISR+0x108>
 8056532:	4b61      	ldr	r3, [pc, #388]	; (80566b8 <xTaskGenericNotifyFromISR+0x284>)
 8056534:	4798      	blx	r3
 8056536:	e7fe      	b.n	8056536 <xTaskGenericNotifyFromISR+0x102>
 8056538:	bf00      	nop
 805653a:	e000      	b.n	805653e <xTaskGenericNotifyFromISR+0x10a>
 805653c:	bf00      	nop
 805653e:	f897 3023 	ldrb.w	r3, [r7, #35]	; 0x23
 8056542:	2b01      	cmp	r3, #1
 8056544:	f040 80b0 	bne.w	80566a8 <xTaskGenericNotifyFromISR+0x274>
 8056548:	6abb      	ldr	r3, [r7, #40]	; 0x28
 805654a:	f8d3 32b8 	ldr.w	r3, [r3, #696]	; 0x2b8
 805654e:	2b00      	cmp	r3, #0
 8056550:	d002      	beq.n	8056558 <xTaskGenericNotifyFromISR+0x124>
 8056552:	4b59      	ldr	r3, [pc, #356]	; (80566b8 <xTaskGenericNotifyFromISR+0x284>)
 8056554:	4798      	blx	r3
 8056556:	e7fe      	b.n	8056556 <xTaskGenericNotifyFromISR+0x122>
 8056558:	4b5a      	ldr	r3, [pc, #360]	; (80566c4 <xTaskGenericNotifyFromISR+0x290>)
 805655a:	681b      	ldr	r3, [r3, #0]
 805655c:	2b00      	cmp	r3, #0
 805655e:	d171      	bne.n	8056644 <xTaskGenericNotifyFromISR+0x210>
 8056560:	6abb      	ldr	r3, [r7, #40]	; 0x28
 8056562:	f8d3 32a4 	ldr.w	r3, [r3, #676]	; 0x2a4
 8056566:	61bb      	str	r3, [r7, #24]
 8056568:	6abb      	ldr	r3, [r7, #40]	; 0x28
 805656a:	f8d3 3298 	ldr.w	r3, [r3, #664]	; 0x298
 805656e:	6aba      	ldr	r2, [r7, #40]	; 0x28
 8056570:	f8d2 229c 	ldr.w	r2, [r2, #668]	; 0x29c
 8056574:	609a      	str	r2, [r3, #8]
 8056576:	6abb      	ldr	r3, [r7, #40]	; 0x28
 8056578:	f8d3 329c 	ldr.w	r3, [r3, #668]	; 0x29c
 805657c:	6aba      	ldr	r2, [r7, #40]	; 0x28
 805657e:	f8d2 2298 	ldr.w	r2, [r2, #664]	; 0x298
 8056582:	605a      	str	r2, [r3, #4]
 8056584:	69bb      	ldr	r3, [r7, #24]
 8056586:	685a      	ldr	r2, [r3, #4]
 8056588:	6abb      	ldr	r3, [r7, #40]	; 0x28
 805658a:	f503 7325 	add.w	r3, r3, #660	; 0x294
 805658e:	429a      	cmp	r2, r3
 8056590:	d104      	bne.n	805659c <xTaskGenericNotifyFromISR+0x168>
 8056592:	6abb      	ldr	r3, [r7, #40]	; 0x28
 8056594:	f8d3 229c 	ldr.w	r2, [r3, #668]	; 0x29c
 8056598:	69bb      	ldr	r3, [r7, #24]
 805659a:	605a      	str	r2, [r3, #4]
 805659c:	6abb      	ldr	r3, [r7, #40]	; 0x28
 805659e:	2200      	movs	r2, #0
 80565a0:	f8c3 22a4 	str.w	r2, [r3, #676]	; 0x2a4
 80565a4:	69bb      	ldr	r3, [r7, #24]
 80565a6:	681b      	ldr	r3, [r3, #0]
 80565a8:	1e5a      	subs	r2, r3, #1
 80565aa:	69bb      	ldr	r3, [r7, #24]
 80565ac:	601a      	str	r2, [r3, #0]
 80565ae:	6abb      	ldr	r3, [r7, #40]	; 0x28
 80565b0:	f8d3 22bc 	ldr.w	r2, [r3, #700]	; 0x2bc
 80565b4:	4b44      	ldr	r3, [pc, #272]	; (80566c8 <xTaskGenericNotifyFromISR+0x294>)
 80565b6:	681b      	ldr	r3, [r3, #0]
 80565b8:	429a      	cmp	r2, r3
 80565ba:	d904      	bls.n	80565c6 <xTaskGenericNotifyFromISR+0x192>
 80565bc:	6abb      	ldr	r3, [r7, #40]	; 0x28
 80565be:	f8d3 32bc 	ldr.w	r3, [r3, #700]	; 0x2bc
 80565c2:	4a41      	ldr	r2, [pc, #260]	; (80566c8 <xTaskGenericNotifyFromISR+0x294>)
 80565c4:	6013      	str	r3, [r2, #0]
 80565c6:	6abb      	ldr	r3, [r7, #40]	; 0x28
 80565c8:	f8d3 22bc 	ldr.w	r2, [r3, #700]	; 0x2bc
 80565cc:	493f      	ldr	r1, [pc, #252]	; (80566cc <xTaskGenericNotifyFromISR+0x298>)
 80565ce:	4613      	mov	r3, r2
 80565d0:	009b      	lsls	r3, r3, #2
 80565d2:	4413      	add	r3, r2
 80565d4:	009b      	lsls	r3, r3, #2
 80565d6:	440b      	add	r3, r1
 80565d8:	3304      	adds	r3, #4
 80565da:	681b      	ldr	r3, [r3, #0]
 80565dc:	617b      	str	r3, [r7, #20]
 80565de:	6abb      	ldr	r3, [r7, #40]	; 0x28
 80565e0:	697a      	ldr	r2, [r7, #20]
 80565e2:	f8c3 2298 	str.w	r2, [r3, #664]	; 0x298
 80565e6:	697b      	ldr	r3, [r7, #20]
 80565e8:	689a      	ldr	r2, [r3, #8]
 80565ea:	6abb      	ldr	r3, [r7, #40]	; 0x28
 80565ec:	f8c3 229c 	str.w	r2, [r3, #668]	; 0x29c
 80565f0:	697b      	ldr	r3, [r7, #20]
 80565f2:	689b      	ldr	r3, [r3, #8]
 80565f4:	6aba      	ldr	r2, [r7, #40]	; 0x28
 80565f6:	f502 7225 	add.w	r2, r2, #660	; 0x294
 80565fa:	605a      	str	r2, [r3, #4]
 80565fc:	6abb      	ldr	r3, [r7, #40]	; 0x28
 80565fe:	f503 7225 	add.w	r2, r3, #660	; 0x294
 8056602:	697b      	ldr	r3, [r7, #20]
 8056604:	609a      	str	r2, [r3, #8]
 8056606:	6abb      	ldr	r3, [r7, #40]	; 0x28
 8056608:	f8d3 22bc 	ldr.w	r2, [r3, #700]	; 0x2bc
 805660c:	4613      	mov	r3, r2
 805660e:	009b      	lsls	r3, r3, #2
 8056610:	4413      	add	r3, r2
 8056612:	009b      	lsls	r3, r3, #2
 8056614:	4a2d      	ldr	r2, [pc, #180]	; (80566cc <xTaskGenericNotifyFromISR+0x298>)
 8056616:	441a      	add	r2, r3
 8056618:	6abb      	ldr	r3, [r7, #40]	; 0x28
 805661a:	f8c3 22a4 	str.w	r2, [r3, #676]	; 0x2a4
 805661e:	6abb      	ldr	r3, [r7, #40]	; 0x28
 8056620:	f8d3 22bc 	ldr.w	r2, [r3, #700]	; 0x2bc
 8056624:	4929      	ldr	r1, [pc, #164]	; (80566cc <xTaskGenericNotifyFromISR+0x298>)
 8056626:	4613      	mov	r3, r2
 8056628:	009b      	lsls	r3, r3, #2
 805662a:	4413      	add	r3, r2
 805662c:	009b      	lsls	r3, r3, #2
 805662e:	440b      	add	r3, r1
 8056630:	681b      	ldr	r3, [r3, #0]
 8056632:	1c59      	adds	r1, r3, #1
 8056634:	4825      	ldr	r0, [pc, #148]	; (80566cc <xTaskGenericNotifyFromISR+0x298>)
 8056636:	4613      	mov	r3, r2
 8056638:	009b      	lsls	r3, r3, #2
 805663a:	4413      	add	r3, r2
 805663c:	009b      	lsls	r3, r3, #2
 805663e:	4403      	add	r3, r0
 8056640:	6019      	str	r1, [r3, #0]
 8056642:	e01f      	b.n	8056684 <xTaskGenericNotifyFromISR+0x250>
 8056644:	4b22      	ldr	r3, [pc, #136]	; (80566d0 <xTaskGenericNotifyFromISR+0x29c>)
 8056646:	685b      	ldr	r3, [r3, #4]
 8056648:	61fb      	str	r3, [r7, #28]
 805664a:	6abb      	ldr	r3, [r7, #40]	; 0x28
 805664c:	69fa      	ldr	r2, [r7, #28]
 805664e:	f8c3 22ac 	str.w	r2, [r3, #684]	; 0x2ac
 8056652:	69fb      	ldr	r3, [r7, #28]
 8056654:	689a      	ldr	r2, [r3, #8]
 8056656:	6abb      	ldr	r3, [r7, #40]	; 0x28
 8056658:	f8c3 22b0 	str.w	r2, [r3, #688]	; 0x2b0
 805665c:	69fb      	ldr	r3, [r7, #28]
 805665e:	689b      	ldr	r3, [r3, #8]
 8056660:	6aba      	ldr	r2, [r7, #40]	; 0x28
 8056662:	f502 722a 	add.w	r2, r2, #680	; 0x2a8
 8056666:	605a      	str	r2, [r3, #4]
 8056668:	6abb      	ldr	r3, [r7, #40]	; 0x28
 805666a:	f503 722a 	add.w	r2, r3, #680	; 0x2a8
 805666e:	69fb      	ldr	r3, [r7, #28]
 8056670:	609a      	str	r2, [r3, #8]
 8056672:	6abb      	ldr	r3, [r7, #40]	; 0x28
 8056674:	4a16      	ldr	r2, [pc, #88]	; (80566d0 <xTaskGenericNotifyFromISR+0x29c>)
 8056676:	f8c3 22b8 	str.w	r2, [r3, #696]	; 0x2b8
 805667a:	4b15      	ldr	r3, [pc, #84]	; (80566d0 <xTaskGenericNotifyFromISR+0x29c>)
 805667c:	681b      	ldr	r3, [r3, #0]
 805667e:	3301      	adds	r3, #1
 8056680:	4a13      	ldr	r2, [pc, #76]	; (80566d0 <xTaskGenericNotifyFromISR+0x29c>)
 8056682:	6013      	str	r3, [r2, #0]
 8056684:	6abb      	ldr	r3, [r7, #40]	; 0x28
 8056686:	f8d3 22bc 	ldr.w	r2, [r3, #700]	; 0x2bc
 805668a:	4b12      	ldr	r3, [pc, #72]	; (80566d4 <xTaskGenericNotifyFromISR+0x2a0>)
 805668c:	681b      	ldr	r3, [r3, #0]
 805668e:	f8d3 32bc 	ldr.w	r3, [r3, #700]	; 0x2bc
 8056692:	429a      	cmp	r2, r3
 8056694:	d908      	bls.n	80566a8 <xTaskGenericNotifyFromISR+0x274>
 8056696:	6bfb      	ldr	r3, [r7, #60]	; 0x3c
 8056698:	2b00      	cmp	r3, #0
 805669a:	d002      	beq.n	80566a2 <xTaskGenericNotifyFromISR+0x26e>
 805669c:	6bfb      	ldr	r3, [r7, #60]	; 0x3c
 805669e:	2201      	movs	r2, #1
 80566a0:	601a      	str	r2, [r3, #0]
 80566a2:	4b0d      	ldr	r3, [pc, #52]	; (80566d8 <xTaskGenericNotifyFromISR+0x2a4>)
 80566a4:	2201      	movs	r2, #1
 80566a6:	601a      	str	r2, [r3, #0]
 80566a8:	6a78      	ldr	r0, [r7, #36]	; 0x24
 80566aa:	4b0c      	ldr	r3, [pc, #48]	; (80566dc <xTaskGenericNotifyFromISR+0x2a8>)
 80566ac:	4798      	blx	r3
 80566ae:	6afb      	ldr	r3, [r7, #44]	; 0x2c
 80566b0:	4618      	mov	r0, r3
 80566b2:	3730      	adds	r7, #48	; 0x30
 80566b4:	46bd      	mov	sp, r7
 80566b6:	bd80      	pop	{r7, pc}
 80566b8:	0805f1c7 	.word	0x0805f1c7
 80566bc:	080607fd 	.word	0x080607fd
 80566c0:	200002b8 	.word	0x200002b8
 80566c4:	200002dc 	.word	0x200002dc
 80566c8:	200002bc 	.word	0x200002bc
 80566cc:	20000104 	.word	0x20000104
 80566d0:	20000274 	.word	0x20000274
 80566d4:	20000100 	.word	0x20000100
 80566d8:	200002c8 	.word	0x200002c8
 80566dc:	0805f1e1 	.word	0x0805f1e1

080566e0 <xTaskGenericNotifyWait>:
 80566e0:	b580      	push	{r7, lr}
 80566e2:	b086      	sub	sp, #24
 80566e4:	af00      	add	r7, sp, #0
 80566e6:	60f8      	str	r0, [r7, #12]
 80566e8:	60b9      	str	r1, [r7, #8]
 80566ea:	607a      	str	r2, [r7, #4]
 80566ec:	603b      	str	r3, [r7, #0]
 80566ee:	68fb      	ldr	r3, [r7, #12]
 80566f0:	2b00      	cmp	r3, #0
 80566f2:	d002      	beq.n	80566fa <xTaskGenericNotifyWait+0x1a>
 80566f4:	4b3c      	ldr	r3, [pc, #240]	; (80567e8 <xTaskGenericNotifyWait+0x108>)
 80566f6:	4798      	blx	r3
 80566f8:	e7fe      	b.n	80566f8 <xTaskGenericNotifyWait+0x18>
 80566fa:	4b3c      	ldr	r3, [pc, #240]	; (80567ec <xTaskGenericNotifyWait+0x10c>)
 80566fc:	4798      	blx	r3
 80566fe:	4b3c      	ldr	r3, [pc, #240]	; (80567f0 <xTaskGenericNotifyWait+0x110>)
 8056700:	681a      	ldr	r2, [r3, #0]
 8056702:	68fb      	ldr	r3, [r7, #12]
 8056704:	4413      	add	r3, r2
 8056706:	f503 733a 	add.w	r3, r3, #744	; 0x2e8
 805670a:	781b      	ldrb	r3, [r3, #0]
 805670c:	b2db      	uxtb	r3, r3
 805670e:	2b02      	cmp	r3, #2
 8056710:	d02d      	beq.n	805676e <xTaskGenericNotifyWait+0x8e>
 8056712:	4b37      	ldr	r3, [pc, #220]	; (80567f0 <xTaskGenericNotifyWait+0x110>)
 8056714:	681a      	ldr	r2, [r3, #0]
 8056716:	68fb      	ldr	r3, [r7, #12]
 8056718:	33b8      	adds	r3, #184	; 0xb8
 805671a:	009b      	lsls	r3, r3, #2
 805671c:	4413      	add	r3, r2
 805671e:	6859      	ldr	r1, [r3, #4]
 8056720:	68bb      	ldr	r3, [r7, #8]
 8056722:	43db      	mvns	r3, r3
 8056724:	4019      	ands	r1, r3
 8056726:	68fb      	ldr	r3, [r7, #12]
 8056728:	33b8      	adds	r3, #184	; 0xb8
 805672a:	009b      	lsls	r3, r3, #2
 805672c:	4413      	add	r3, r2
 805672e:	6059      	str	r1, [r3, #4]
 8056730:	4b2f      	ldr	r3, [pc, #188]	; (80567f0 <xTaskGenericNotifyWait+0x110>)
 8056732:	681a      	ldr	r2, [r3, #0]
 8056734:	68fb      	ldr	r3, [r7, #12]
 8056736:	4413      	add	r3, r2
 8056738:	f503 733a 	add.w	r3, r3, #744	; 0x2e8
 805673c:	2201      	movs	r2, #1
 805673e:	701a      	strb	r2, [r3, #0]
 8056740:	6a3b      	ldr	r3, [r7, #32]
 8056742:	2b00      	cmp	r3, #0
 8056744:	d010      	beq.n	8056768 <xTaskGenericNotifyWait+0x88>
 8056746:	f7ff fb39 	bl	8055dbc <vTaskSuspendAll>
 805674a:	4b2a      	ldr	r3, [pc, #168]	; (80567f4 <xTaskGenericNotifyWait+0x114>)
 805674c:	4798      	blx	r3
 805674e:	2101      	movs	r1, #1
 8056750:	6a38      	ldr	r0, [r7, #32]
 8056752:	f001 fa73 	bl	8057c3c <prvAddCurrentTaskToDelayedList>
 8056756:	f7ff fb3f 	bl	8055dd8 <xTaskResumeAll>
 805675a:	6138      	str	r0, [r7, #16]
 805675c:	693b      	ldr	r3, [r7, #16]
 805675e:	2b00      	cmp	r3, #0
 8056760:	d107      	bne.n	8056772 <xTaskGenericNotifyWait+0x92>
 8056762:	4b25      	ldr	r3, [pc, #148]	; (80567f8 <xTaskGenericNotifyWait+0x118>)
 8056764:	4798      	blx	r3
 8056766:	e004      	b.n	8056772 <xTaskGenericNotifyWait+0x92>
 8056768:	4b22      	ldr	r3, [pc, #136]	; (80567f4 <xTaskGenericNotifyWait+0x114>)
 805676a:	4798      	blx	r3
 805676c:	e001      	b.n	8056772 <xTaskGenericNotifyWait+0x92>
 805676e:	4b21      	ldr	r3, [pc, #132]	; (80567f4 <xTaskGenericNotifyWait+0x114>)
 8056770:	4798      	blx	r3
 8056772:	4b1e      	ldr	r3, [pc, #120]	; (80567ec <xTaskGenericNotifyWait+0x10c>)
 8056774:	4798      	blx	r3
 8056776:	683b      	ldr	r3, [r7, #0]
 8056778:	2b00      	cmp	r3, #0
 805677a:	d008      	beq.n	805678e <xTaskGenericNotifyWait+0xae>
 805677c:	4b1c      	ldr	r3, [pc, #112]	; (80567f0 <xTaskGenericNotifyWait+0x110>)
 805677e:	681a      	ldr	r2, [r3, #0]
 8056780:	68fb      	ldr	r3, [r7, #12]
 8056782:	33b8      	adds	r3, #184	; 0xb8
 8056784:	009b      	lsls	r3, r3, #2
 8056786:	4413      	add	r3, r2
 8056788:	685a      	ldr	r2, [r3, #4]
 805678a:	683b      	ldr	r3, [r7, #0]
 805678c:	601a      	str	r2, [r3, #0]
 805678e:	4b18      	ldr	r3, [pc, #96]	; (80567f0 <xTaskGenericNotifyWait+0x110>)
 8056790:	681a      	ldr	r2, [r3, #0]
 8056792:	68fb      	ldr	r3, [r7, #12]
 8056794:	4413      	add	r3, r2
 8056796:	f503 733a 	add.w	r3, r3, #744	; 0x2e8
 805679a:	781b      	ldrb	r3, [r3, #0]
 805679c:	b2db      	uxtb	r3, r3
 805679e:	2b02      	cmp	r3, #2
 80567a0:	d002      	beq.n	80567a8 <xTaskGenericNotifyWait+0xc8>
 80567a2:	2300      	movs	r3, #0
 80567a4:	617b      	str	r3, [r7, #20]
 80567a6:	e010      	b.n	80567ca <xTaskGenericNotifyWait+0xea>
 80567a8:	4b11      	ldr	r3, [pc, #68]	; (80567f0 <xTaskGenericNotifyWait+0x110>)
 80567aa:	681a      	ldr	r2, [r3, #0]
 80567ac:	68fb      	ldr	r3, [r7, #12]
 80567ae:	33b8      	adds	r3, #184	; 0xb8
 80567b0:	009b      	lsls	r3, r3, #2
 80567b2:	4413      	add	r3, r2
 80567b4:	6859      	ldr	r1, [r3, #4]
 80567b6:	687b      	ldr	r3, [r7, #4]
 80567b8:	43db      	mvns	r3, r3
 80567ba:	4019      	ands	r1, r3
 80567bc:	68fb      	ldr	r3, [r7, #12]
 80567be:	33b8      	adds	r3, #184	; 0xb8
 80567c0:	009b      	lsls	r3, r3, #2
 80567c2:	4413      	add	r3, r2
 80567c4:	6059      	str	r1, [r3, #4]
 80567c6:	2301      	movs	r3, #1
 80567c8:	617b      	str	r3, [r7, #20]
 80567ca:	4b09      	ldr	r3, [pc, #36]	; (80567f0 <xTaskGenericNotifyWait+0x110>)
 80567cc:	681a      	ldr	r2, [r3, #0]
 80567ce:	68fb      	ldr	r3, [r7, #12]
 80567d0:	4413      	add	r3, r2
 80567d2:	f503 733a 	add.w	r3, r3, #744	; 0x2e8
 80567d6:	2200      	movs	r2, #0
 80567d8:	701a      	strb	r2, [r3, #0]
 80567da:	4b06      	ldr	r3, [pc, #24]	; (80567f4 <xTaskGenericNotifyWait+0x114>)
 80567dc:	4798      	blx	r3
 80567de:	697b      	ldr	r3, [r7, #20]
 80567e0:	4618      	mov	r0, r3
 80567e2:	3718      	adds	r7, #24
 80567e4:	46bd      	mov	sp, r7
 80567e6:	bd80      	pop	{r7, pc}
 80567e8:	0805f1c7 	.word	0x0805f1c7
 80567ec:	0805ecc5 	.word	0x0805ecc5
 80567f0:	20000100 	.word	0x20000100
 80567f4:	0805eced 	.word	0x0805eced
 80567f8:	0805eca5 	.word	0x0805eca5

080567fc <vTaskGenericNotifyGiveFromISR>:
 80567fc:	b580      	push	{r7, lr}
 80567fe:	b08a      	sub	sp, #40	; 0x28
 8056800:	af00      	add	r7, sp, #0
 8056802:	60f8      	str	r0, [r7, #12]
 8056804:	60b9      	str	r1, [r7, #8]
 8056806:	607a      	str	r2, [r7, #4]
 8056808:	68fb      	ldr	r3, [r7, #12]
 805680a:	2b00      	cmp	r3, #0
 805680c:	d102      	bne.n	8056814 <vTaskGenericNotifyGiveFromISR+0x18>
 805680e:	4b73      	ldr	r3, [pc, #460]	; (80569dc <vTaskGenericNotifyGiveFromISR+0x1e0>)
 8056810:	4798      	blx	r3
 8056812:	e7fe      	b.n	8056812 <vTaskGenericNotifyGiveFromISR+0x16>
 8056814:	68bb      	ldr	r3, [r7, #8]
 8056816:	2b00      	cmp	r3, #0
 8056818:	d002      	beq.n	8056820 <vTaskGenericNotifyGiveFromISR+0x24>
 805681a:	4b70      	ldr	r3, [pc, #448]	; (80569dc <vTaskGenericNotifyGiveFromISR+0x1e0>)
 805681c:	4798      	blx	r3
 805681e:	e7fe      	b.n	805681e <vTaskGenericNotifyGiveFromISR+0x22>
 8056820:	4b6f      	ldr	r3, [pc, #444]	; (80569e0 <vTaskGenericNotifyGiveFromISR+0x1e4>)
 8056822:	4798      	blx	r3
 8056824:	68fb      	ldr	r3, [r7, #12]
 8056826:	627b      	str	r3, [r7, #36]	; 0x24
 8056828:	4b6c      	ldr	r3, [pc, #432]	; (80569dc <vTaskGenericNotifyGiveFromISR+0x1e0>)
 805682a:	4798      	blx	r3
 805682c:	6238      	str	r0, [r7, #32]
 805682e:	6a7a      	ldr	r2, [r7, #36]	; 0x24
 8056830:	68bb      	ldr	r3, [r7, #8]
 8056832:	4413      	add	r3, r2
 8056834:	f503 733a 	add.w	r3, r3, #744	; 0x2e8
 8056838:	781b      	ldrb	r3, [r3, #0]
 805683a:	77fb      	strb	r3, [r7, #31]
 805683c:	6a7a      	ldr	r2, [r7, #36]	; 0x24
 805683e:	68bb      	ldr	r3, [r7, #8]
 8056840:	4413      	add	r3, r2
 8056842:	f503 733a 	add.w	r3, r3, #744	; 0x2e8
 8056846:	2202      	movs	r2, #2
 8056848:	701a      	strb	r2, [r3, #0]
 805684a:	6a7a      	ldr	r2, [r7, #36]	; 0x24
 805684c:	68bb      	ldr	r3, [r7, #8]
 805684e:	33b8      	adds	r3, #184	; 0xb8
 8056850:	009b      	lsls	r3, r3, #2
 8056852:	4413      	add	r3, r2
 8056854:	685b      	ldr	r3, [r3, #4]
 8056856:	1c5a      	adds	r2, r3, #1
 8056858:	6a79      	ldr	r1, [r7, #36]	; 0x24
 805685a:	68bb      	ldr	r3, [r7, #8]
 805685c:	33b8      	adds	r3, #184	; 0xb8
 805685e:	009b      	lsls	r3, r3, #2
 8056860:	440b      	add	r3, r1
 8056862:	605a      	str	r2, [r3, #4]
 8056864:	7ffb      	ldrb	r3, [r7, #31]
 8056866:	2b01      	cmp	r3, #1
 8056868:	f040 80b0 	bne.w	80569cc <vTaskGenericNotifyGiveFromISR+0x1d0>
 805686c:	6a7b      	ldr	r3, [r7, #36]	; 0x24
 805686e:	f8d3 32b8 	ldr.w	r3, [r3, #696]	; 0x2b8
 8056872:	2b00      	cmp	r3, #0
 8056874:	d002      	beq.n	805687c <vTaskGenericNotifyGiveFromISR+0x80>
 8056876:	4b59      	ldr	r3, [pc, #356]	; (80569dc <vTaskGenericNotifyGiveFromISR+0x1e0>)
 8056878:	4798      	blx	r3
 805687a:	e7fe      	b.n	805687a <vTaskGenericNotifyGiveFromISR+0x7e>
 805687c:	4b59      	ldr	r3, [pc, #356]	; (80569e4 <vTaskGenericNotifyGiveFromISR+0x1e8>)
 805687e:	681b      	ldr	r3, [r3, #0]
 8056880:	2b00      	cmp	r3, #0
 8056882:	d171      	bne.n	8056968 <vTaskGenericNotifyGiveFromISR+0x16c>
 8056884:	6a7b      	ldr	r3, [r7, #36]	; 0x24
 8056886:	f8d3 32a4 	ldr.w	r3, [r3, #676]	; 0x2a4
 805688a:	617b      	str	r3, [r7, #20]
 805688c:	6a7b      	ldr	r3, [r7, #36]	; 0x24
 805688e:	f8d3 3298 	ldr.w	r3, [r3, #664]	; 0x298
 8056892:	6a7a      	ldr	r2, [r7, #36]	; 0x24
 8056894:	f8d2 229c 	ldr.w	r2, [r2, #668]	; 0x29c
 8056898:	609a      	str	r2, [r3, #8]
 805689a:	6a7b      	ldr	r3, [r7, #36]	; 0x24
 805689c:	f8d3 329c 	ldr.w	r3, [r3, #668]	; 0x29c
 80568a0:	6a7a      	ldr	r2, [r7, #36]	; 0x24
 80568a2:	f8d2 2298 	ldr.w	r2, [r2, #664]	; 0x298
 80568a6:	605a      	str	r2, [r3, #4]
 80568a8:	697b      	ldr	r3, [r7, #20]
 80568aa:	685a      	ldr	r2, [r3, #4]
 80568ac:	6a7b      	ldr	r3, [r7, #36]	; 0x24
 80568ae:	f503 7325 	add.w	r3, r3, #660	; 0x294
 80568b2:	429a      	cmp	r2, r3
 80568b4:	d104      	bne.n	80568c0 <vTaskGenericNotifyGiveFromISR+0xc4>
 80568b6:	6a7b      	ldr	r3, [r7, #36]	; 0x24
 80568b8:	f8d3 229c 	ldr.w	r2, [r3, #668]	; 0x29c
 80568bc:	697b      	ldr	r3, [r7, #20]
 80568be:	605a      	str	r2, [r3, #4]
 80568c0:	6a7b      	ldr	r3, [r7, #36]	; 0x24
 80568c2:	2200      	movs	r2, #0
 80568c4:	f8c3 22a4 	str.w	r2, [r3, #676]	; 0x2a4
 80568c8:	697b      	ldr	r3, [r7, #20]
 80568ca:	681b      	ldr	r3, [r3, #0]
 80568cc:	1e5a      	subs	r2, r3, #1
 80568ce:	697b      	ldr	r3, [r7, #20]
 80568d0:	601a      	str	r2, [r3, #0]
 80568d2:	6a7b      	ldr	r3, [r7, #36]	; 0x24
 80568d4:	f8d3 22bc 	ldr.w	r2, [r3, #700]	; 0x2bc
 80568d8:	4b43      	ldr	r3, [pc, #268]	; (80569e8 <vTaskGenericNotifyGiveFromISR+0x1ec>)
 80568da:	681b      	ldr	r3, [r3, #0]
 80568dc:	429a      	cmp	r2, r3
 80568de:	d904      	bls.n	80568ea <vTaskGenericNotifyGiveFromISR+0xee>
 80568e0:	6a7b      	ldr	r3, [r7, #36]	; 0x24
 80568e2:	f8d3 32bc 	ldr.w	r3, [r3, #700]	; 0x2bc
 80568e6:	4a40      	ldr	r2, [pc, #256]	; (80569e8 <vTaskGenericNotifyGiveFromISR+0x1ec>)
 80568e8:	6013      	str	r3, [r2, #0]
 80568ea:	6a7b      	ldr	r3, [r7, #36]	; 0x24
 80568ec:	f8d3 22bc 	ldr.w	r2, [r3, #700]	; 0x2bc
 80568f0:	493e      	ldr	r1, [pc, #248]	; (80569ec <vTaskGenericNotifyGiveFromISR+0x1f0>)
 80568f2:	4613      	mov	r3, r2
 80568f4:	009b      	lsls	r3, r3, #2
 80568f6:	4413      	add	r3, r2
 80568f8:	009b      	lsls	r3, r3, #2
 80568fa:	440b      	add	r3, r1
 80568fc:	3304      	adds	r3, #4
 80568fe:	681b      	ldr	r3, [r3, #0]
 8056900:	613b      	str	r3, [r7, #16]
 8056902:	6a7b      	ldr	r3, [r7, #36]	; 0x24
 8056904:	693a      	ldr	r2, [r7, #16]
 8056906:	f8c3 2298 	str.w	r2, [r3, #664]	; 0x298
 805690a:	693b      	ldr	r3, [r7, #16]
 805690c:	689a      	ldr	r2, [r3, #8]
 805690e:	6a7b      	ldr	r3, [r7, #36]	; 0x24
 8056910:	f8c3 229c 	str.w	r2, [r3, #668]	; 0x29c
 8056914:	693b      	ldr	r3, [r7, #16]
 8056916:	689b      	ldr	r3, [r3, #8]
 8056918:	6a7a      	ldr	r2, [r7, #36]	; 0x24
 805691a:	f502 7225 	add.w	r2, r2, #660	; 0x294
 805691e:	605a      	str	r2, [r3, #4]
 8056920:	6a7b      	ldr	r3, [r7, #36]	; 0x24
 8056922:	f503 7225 	add.w	r2, r3, #660	; 0x294
 8056926:	693b      	ldr	r3, [r7, #16]
 8056928:	609a      	str	r2, [r3, #8]
 805692a:	6a7b      	ldr	r3, [r7, #36]	; 0x24
 805692c:	f8d3 22bc 	ldr.w	r2, [r3, #700]	; 0x2bc
 8056930:	4613      	mov	r3, r2
 8056932:	009b      	lsls	r3, r3, #2
 8056934:	4413      	add	r3, r2
 8056936:	009b      	lsls	r3, r3, #2
 8056938:	4a2c      	ldr	r2, [pc, #176]	; (80569ec <vTaskGenericNotifyGiveFromISR+0x1f0>)
 805693a:	441a      	add	r2, r3
 805693c:	6a7b      	ldr	r3, [r7, #36]	; 0x24
 805693e:	f8c3 22a4 	str.w	r2, [r3, #676]	; 0x2a4
 8056942:	6a7b      	ldr	r3, [r7, #36]	; 0x24
 8056944:	f8d3 22bc 	ldr.w	r2, [r3, #700]	; 0x2bc
 8056948:	4928      	ldr	r1, [pc, #160]	; (80569ec <vTaskGenericNotifyGiveFromISR+0x1f0>)
 805694a:	4613      	mov	r3, r2
 805694c:	009b      	lsls	r3, r3, #2
 805694e:	4413      	add	r3, r2
 8056950:	009b      	lsls	r3, r3, #2
 8056952:	440b      	add	r3, r1
 8056954:	681b      	ldr	r3, [r3, #0]
 8056956:	1c59      	adds	r1, r3, #1
 8056958:	4824      	ldr	r0, [pc, #144]	; (80569ec <vTaskGenericNotifyGiveFromISR+0x1f0>)
 805695a:	4613      	mov	r3, r2
 805695c:	009b      	lsls	r3, r3, #2
 805695e:	4413      	add	r3, r2
 8056960:	009b      	lsls	r3, r3, #2
 8056962:	4403      	add	r3, r0
 8056964:	6019      	str	r1, [r3, #0]
 8056966:	e01f      	b.n	80569a8 <vTaskGenericNotifyGiveFromISR+0x1ac>
 8056968:	4b21      	ldr	r3, [pc, #132]	; (80569f0 <vTaskGenericNotifyGiveFromISR+0x1f4>)
 805696a:	685b      	ldr	r3, [r3, #4]
 805696c:	61bb      	str	r3, [r7, #24]
 805696e:	6a7b      	ldr	r3, [r7, #36]	; 0x24
 8056970:	69ba      	ldr	r2, [r7, #24]
 8056972:	f8c3 22ac 	str.w	r2, [r3, #684]	; 0x2ac
 8056976:	69bb      	ldr	r3, [r7, #24]
 8056978:	689a      	ldr	r2, [r3, #8]
 805697a:	6a7b      	ldr	r3, [r7, #36]	; 0x24
 805697c:	f8c3 22b0 	str.w	r2, [r3, #688]	; 0x2b0
 8056980:	69bb      	ldr	r3, [r7, #24]
 8056982:	689b      	ldr	r3, [r3, #8]
 8056984:	6a7a      	ldr	r2, [r7, #36]	; 0x24
 8056986:	f502 722a 	add.w	r2, r2, #680	; 0x2a8
 805698a:	605a      	str	r2, [r3, #4]
 805698c:	6a7b      	ldr	r3, [r7, #36]	; 0x24
 805698e:	f503 722a 	add.w	r2, r3, #680	; 0x2a8
 8056992:	69bb      	ldr	r3, [r7, #24]
 8056994:	609a      	str	r2, [r3, #8]
 8056996:	6a7b      	ldr	r3, [r7, #36]	; 0x24
 8056998:	4a15      	ldr	r2, [pc, #84]	; (80569f0 <vTaskGenericNotifyGiveFromISR+0x1f4>)
 805699a:	f8c3 22b8 	str.w	r2, [r3, #696]	; 0x2b8
 805699e:	4b14      	ldr	r3, [pc, #80]	; (80569f0 <vTaskGenericNotifyGiveFromISR+0x1f4>)
 80569a0:	681b      	ldr	r3, [r3, #0]
 80569a2:	3301      	adds	r3, #1
 80569a4:	4a12      	ldr	r2, [pc, #72]	; (80569f0 <vTaskGenericNotifyGiveFromISR+0x1f4>)
 80569a6:	6013      	str	r3, [r2, #0]
 80569a8:	6a7b      	ldr	r3, [r7, #36]	; 0x24
 80569aa:	f8d3 22bc 	ldr.w	r2, [r3, #700]	; 0x2bc
 80569ae:	4b11      	ldr	r3, [pc, #68]	; (80569f4 <vTaskGenericNotifyGiveFromISR+0x1f8>)
 80569b0:	681b      	ldr	r3, [r3, #0]
 80569b2:	f8d3 32bc 	ldr.w	r3, [r3, #700]	; 0x2bc
 80569b6:	429a      	cmp	r2, r3
 80569b8:	d908      	bls.n	80569cc <vTaskGenericNotifyGiveFromISR+0x1d0>
 80569ba:	687b      	ldr	r3, [r7, #4]
 80569bc:	2b00      	cmp	r3, #0
 80569be:	d002      	beq.n	80569c6 <vTaskGenericNotifyGiveFromISR+0x1ca>
 80569c0:	687b      	ldr	r3, [r7, #4]
 80569c2:	2201      	movs	r2, #1
 80569c4:	601a      	str	r2, [r3, #0]
 80569c6:	4b0c      	ldr	r3, [pc, #48]	; (80569f8 <vTaskGenericNotifyGiveFromISR+0x1fc>)
 80569c8:	2201      	movs	r2, #1
 80569ca:	601a      	str	r2, [r3, #0]
 80569cc:	6a38      	ldr	r0, [r7, #32]
 80569ce:	4b0b      	ldr	r3, [pc, #44]	; (80569fc <vTaskGenericNotifyGiveFromISR+0x200>)
 80569d0:	4798      	blx	r3
 80569d2:	bf00      	nop
 80569d4:	3728      	adds	r7, #40	; 0x28
 80569d6:	46bd      	mov	sp, r7
 80569d8:	bd80      	pop	{r7, pc}
 80569da:	bf00      	nop
 80569dc:	0805f1c7 	.word	0x0805f1c7
 80569e0:	080607fd 	.word	0x080607fd
 80569e4:	200002dc 	.word	0x200002dc
 80569e8:	200002bc 	.word	0x200002bc
 80569ec:	20000104 	.word	0x20000104
 80569f0:	20000274 	.word	0x20000274
 80569f4:	20000100 	.word	0x20000100
 80569f8:	200002c8 	.word	0x200002c8
 80569fc:	0805f1e1 	.word	0x0805f1e1

08056a00 <ulTaskGenericNotifyTake>:
 8056a00:	b580      	push	{r7, lr}
 8056a02:	b086      	sub	sp, #24
 8056a04:	af00      	add	r7, sp, #0
 8056a06:	60f8      	str	r0, [r7, #12]
 8056a08:	60b9      	str	r1, [r7, #8]
 8056a0a:	607a      	str	r2, [r7, #4]
 8056a0c:	68fb      	ldr	r3, [r7, #12]
 8056a0e:	2b00      	cmp	r3, #0
 8056a10:	d002      	beq.n	8056a18 <ulTaskGenericNotifyTake+0x18>
 8056a12:	4b30      	ldr	r3, [pc, #192]	; (8056ad4 <ulTaskGenericNotifyTake+0xd4>)
 8056a14:	4798      	blx	r3
 8056a16:	e7fe      	b.n	8056a16 <ulTaskGenericNotifyTake+0x16>
 8056a18:	4b2f      	ldr	r3, [pc, #188]	; (8056ad8 <ulTaskGenericNotifyTake+0xd8>)
 8056a1a:	4798      	blx	r3
 8056a1c:	4b2f      	ldr	r3, [pc, #188]	; (8056adc <ulTaskGenericNotifyTake+0xdc>)
 8056a1e:	681a      	ldr	r2, [r3, #0]
 8056a20:	68fb      	ldr	r3, [r7, #12]
 8056a22:	33b8      	adds	r3, #184	; 0xb8
 8056a24:	009b      	lsls	r3, r3, #2
 8056a26:	4413      	add	r3, r2
 8056a28:	685b      	ldr	r3, [r3, #4]
 8056a2a:	2b00      	cmp	r3, #0
 8056a2c:	d11e      	bne.n	8056a6c <ulTaskGenericNotifyTake+0x6c>
 8056a2e:	4b2b      	ldr	r3, [pc, #172]	; (8056adc <ulTaskGenericNotifyTake+0xdc>)
 8056a30:	681a      	ldr	r2, [r3, #0]
 8056a32:	68fb      	ldr	r3, [r7, #12]
 8056a34:	4413      	add	r3, r2
 8056a36:	f503 733a 	add.w	r3, r3, #744	; 0x2e8
 8056a3a:	2201      	movs	r2, #1
 8056a3c:	701a      	strb	r2, [r3, #0]
 8056a3e:	687b      	ldr	r3, [r7, #4]
 8056a40:	2b00      	cmp	r3, #0
 8056a42:	d010      	beq.n	8056a66 <ulTaskGenericNotifyTake+0x66>
 8056a44:	f7ff f9ba 	bl	8055dbc <vTaskSuspendAll>
 8056a48:	4b25      	ldr	r3, [pc, #148]	; (8056ae0 <ulTaskGenericNotifyTake+0xe0>)
 8056a4a:	4798      	blx	r3
 8056a4c:	2101      	movs	r1, #1
 8056a4e:	6878      	ldr	r0, [r7, #4]
 8056a50:	f001 f8f4 	bl	8057c3c <prvAddCurrentTaskToDelayedList>
 8056a54:	f7ff f9c0 	bl	8055dd8 <xTaskResumeAll>
 8056a58:	6178      	str	r0, [r7, #20]
 8056a5a:	697b      	ldr	r3, [r7, #20]
 8056a5c:	2b00      	cmp	r3, #0
 8056a5e:	d107      	bne.n	8056a70 <ulTaskGenericNotifyTake+0x70>
 8056a60:	4b20      	ldr	r3, [pc, #128]	; (8056ae4 <ulTaskGenericNotifyTake+0xe4>)
 8056a62:	4798      	blx	r3
 8056a64:	e004      	b.n	8056a70 <ulTaskGenericNotifyTake+0x70>
 8056a66:	4b1e      	ldr	r3, [pc, #120]	; (8056ae0 <ulTaskGenericNotifyTake+0xe0>)
 8056a68:	4798      	blx	r3
 8056a6a:	e001      	b.n	8056a70 <ulTaskGenericNotifyTake+0x70>
 8056a6c:	4b1c      	ldr	r3, [pc, #112]	; (8056ae0 <ulTaskGenericNotifyTake+0xe0>)
 8056a6e:	4798      	blx	r3
 8056a70:	4b19      	ldr	r3, [pc, #100]	; (8056ad8 <ulTaskGenericNotifyTake+0xd8>)
 8056a72:	4798      	blx	r3
 8056a74:	4b19      	ldr	r3, [pc, #100]	; (8056adc <ulTaskGenericNotifyTake+0xdc>)
 8056a76:	681a      	ldr	r2, [r3, #0]
 8056a78:	68fb      	ldr	r3, [r7, #12]
 8056a7a:	33b8      	adds	r3, #184	; 0xb8
 8056a7c:	009b      	lsls	r3, r3, #2
 8056a7e:	4413      	add	r3, r2
 8056a80:	685b      	ldr	r3, [r3, #4]
 8056a82:	613b      	str	r3, [r7, #16]
 8056a84:	693b      	ldr	r3, [r7, #16]
 8056a86:	2b00      	cmp	r3, #0
 8056a88:	d014      	beq.n	8056ab4 <ulTaskGenericNotifyTake+0xb4>
 8056a8a:	68bb      	ldr	r3, [r7, #8]
 8056a8c:	2b00      	cmp	r3, #0
 8056a8e:	d008      	beq.n	8056aa2 <ulTaskGenericNotifyTake+0xa2>
 8056a90:	4b12      	ldr	r3, [pc, #72]	; (8056adc <ulTaskGenericNotifyTake+0xdc>)
 8056a92:	681a      	ldr	r2, [r3, #0]
 8056a94:	68fb      	ldr	r3, [r7, #12]
 8056a96:	33b8      	adds	r3, #184	; 0xb8
 8056a98:	009b      	lsls	r3, r3, #2
 8056a9a:	4413      	add	r3, r2
 8056a9c:	2200      	movs	r2, #0
 8056a9e:	605a      	str	r2, [r3, #4]
 8056aa0:	e008      	b.n	8056ab4 <ulTaskGenericNotifyTake+0xb4>
 8056aa2:	4b0e      	ldr	r3, [pc, #56]	; (8056adc <ulTaskGenericNotifyTake+0xdc>)
 8056aa4:	6819      	ldr	r1, [r3, #0]
 8056aa6:	693b      	ldr	r3, [r7, #16]
 8056aa8:	1e5a      	subs	r2, r3, #1
 8056aaa:	68fb      	ldr	r3, [r7, #12]
 8056aac:	33b8      	adds	r3, #184	; 0xb8
 8056aae:	009b      	lsls	r3, r3, #2
 8056ab0:	440b      	add	r3, r1
 8056ab2:	605a      	str	r2, [r3, #4]
 8056ab4:	4b09      	ldr	r3, [pc, #36]	; (8056adc <ulTaskGenericNotifyTake+0xdc>)
 8056ab6:	681a      	ldr	r2, [r3, #0]
 8056ab8:	68fb      	ldr	r3, [r7, #12]
 8056aba:	4413      	add	r3, r2
 8056abc:	f503 733a 	add.w	r3, r3, #744	; 0x2e8
 8056ac0:	2200      	movs	r2, #0
 8056ac2:	701a      	strb	r2, [r3, #0]
 8056ac4:	4b06      	ldr	r3, [pc, #24]	; (8056ae0 <ulTaskGenericNotifyTake+0xe0>)
 8056ac6:	4798      	blx	r3
 8056ac8:	693b      	ldr	r3, [r7, #16]
 8056aca:	4618      	mov	r0, r3
 8056acc:	3718      	adds	r7, #24
 8056ace:	46bd      	mov	sp, r7
 8056ad0:	bd80      	pop	{r7, pc}
 8056ad2:	bf00      	nop
 8056ad4:	0805f1c7 	.word	0x0805f1c7
 8056ad8:	0805ecc5 	.word	0x0805ecc5
 8056adc:	20000100 	.word	0x20000100
 8056ae0:	0805eced 	.word	0x0805eced
 8056ae4:	0805eca5 	.word	0x0805eca5

08056ae8 <xTaskGenericNotifyStateClear>:
 8056ae8:	b580      	push	{r7, lr}
 8056aea:	b084      	sub	sp, #16
 8056aec:	af00      	add	r7, sp, #0
 8056aee:	6078      	str	r0, [r7, #4]
 8056af0:	6039      	str	r1, [r7, #0]
 8056af2:	683b      	ldr	r3, [r7, #0]
 8056af4:	2b00      	cmp	r3, #0
 8056af6:	d002      	beq.n	8056afe <xTaskGenericNotifyStateClear+0x16>
 8056af8:	4b14      	ldr	r3, [pc, #80]	; (8056b4c <xTaskGenericNotifyStateClear+0x64>)
 8056afa:	4798      	blx	r3
 8056afc:	e7fe      	b.n	8056afc <xTaskGenericNotifyStateClear+0x14>
 8056afe:	687b      	ldr	r3, [r7, #4]
 8056b00:	2b00      	cmp	r3, #0
 8056b02:	d102      	bne.n	8056b0a <xTaskGenericNotifyStateClear+0x22>
 8056b04:	4b12      	ldr	r3, [pc, #72]	; (8056b50 <xTaskGenericNotifyStateClear+0x68>)
 8056b06:	681b      	ldr	r3, [r3, #0]
 8056b08:	e000      	b.n	8056b0c <xTaskGenericNotifyStateClear+0x24>
 8056b0a:	687b      	ldr	r3, [r7, #4]
 8056b0c:	60bb      	str	r3, [r7, #8]
 8056b0e:	4b11      	ldr	r3, [pc, #68]	; (8056b54 <xTaskGenericNotifyStateClear+0x6c>)
 8056b10:	4798      	blx	r3
 8056b12:	68ba      	ldr	r2, [r7, #8]
 8056b14:	683b      	ldr	r3, [r7, #0]
 8056b16:	4413      	add	r3, r2
 8056b18:	f503 733a 	add.w	r3, r3, #744	; 0x2e8
 8056b1c:	781b      	ldrb	r3, [r3, #0]
 8056b1e:	b2db      	uxtb	r3, r3
 8056b20:	2b02      	cmp	r3, #2
 8056b22:	d109      	bne.n	8056b38 <xTaskGenericNotifyStateClear+0x50>
 8056b24:	68ba      	ldr	r2, [r7, #8]
 8056b26:	683b      	ldr	r3, [r7, #0]
 8056b28:	4413      	add	r3, r2
 8056b2a:	f503 733a 	add.w	r3, r3, #744	; 0x2e8
 8056b2e:	2200      	movs	r2, #0
 8056b30:	701a      	strb	r2, [r3, #0]
 8056b32:	2301      	movs	r3, #1
 8056b34:	60fb      	str	r3, [r7, #12]
 8056b36:	e001      	b.n	8056b3c <xTaskGenericNotifyStateClear+0x54>
 8056b38:	2300      	movs	r3, #0
 8056b3a:	60fb      	str	r3, [r7, #12]
 8056b3c:	4b06      	ldr	r3, [pc, #24]	; (8056b58 <xTaskGenericNotifyStateClear+0x70>)
 8056b3e:	4798      	blx	r3
 8056b40:	68fb      	ldr	r3, [r7, #12]
 8056b42:	4618      	mov	r0, r3
 8056b44:	3710      	adds	r7, #16
 8056b46:	46bd      	mov	sp, r7
 8056b48:	bd80      	pop	{r7, pc}
 8056b4a:	bf00      	nop
 8056b4c:	0805f1c7 	.word	0x0805f1c7
 8056b50:	20000100 	.word	0x20000100
 8056b54:	0805ecc5 	.word	0x0805ecc5
 8056b58:	0805eced 	.word	0x0805eced

08056b5c <ulTaskGenericNotifyValueClear>:
 8056b5c:	b580      	push	{r7, lr}
 8056b5e:	b086      	sub	sp, #24
 8056b60:	af00      	add	r7, sp, #0
 8056b62:	60f8      	str	r0, [r7, #12]
 8056b64:	60b9      	str	r1, [r7, #8]
 8056b66:	607a      	str	r2, [r7, #4]
 8056b68:	68bb      	ldr	r3, [r7, #8]
 8056b6a:	2b00      	cmp	r3, #0
 8056b6c:	d002      	beq.n	8056b74 <ulTaskGenericNotifyValueClear+0x18>
 8056b6e:	4b15      	ldr	r3, [pc, #84]	; (8056bc4 <ulTaskGenericNotifyValueClear+0x68>)
 8056b70:	4798      	blx	r3
 8056b72:	e7fe      	b.n	8056b72 <ulTaskGenericNotifyValueClear+0x16>
 8056b74:	68fb      	ldr	r3, [r7, #12]
 8056b76:	2b00      	cmp	r3, #0
 8056b78:	d102      	bne.n	8056b80 <ulTaskGenericNotifyValueClear+0x24>
 8056b7a:	4b13      	ldr	r3, [pc, #76]	; (8056bc8 <ulTaskGenericNotifyValueClear+0x6c>)
 8056b7c:	681b      	ldr	r3, [r3, #0]
 8056b7e:	e000      	b.n	8056b82 <ulTaskGenericNotifyValueClear+0x26>
 8056b80:	68fb      	ldr	r3, [r7, #12]
 8056b82:	617b      	str	r3, [r7, #20]
 8056b84:	4b11      	ldr	r3, [pc, #68]	; (8056bcc <ulTaskGenericNotifyValueClear+0x70>)
 8056b86:	4798      	blx	r3
 8056b88:	697a      	ldr	r2, [r7, #20]
 8056b8a:	68bb      	ldr	r3, [r7, #8]
 8056b8c:	33b8      	adds	r3, #184	; 0xb8
 8056b8e:	009b      	lsls	r3, r3, #2
 8056b90:	4413      	add	r3, r2
 8056b92:	685b      	ldr	r3, [r3, #4]
 8056b94:	613b      	str	r3, [r7, #16]
 8056b96:	697a      	ldr	r2, [r7, #20]
 8056b98:	68bb      	ldr	r3, [r7, #8]
 8056b9a:	33b8      	adds	r3, #184	; 0xb8
 8056b9c:	009b      	lsls	r3, r3, #2
 8056b9e:	4413      	add	r3, r2
 8056ba0:	685a      	ldr	r2, [r3, #4]
 8056ba2:	687b      	ldr	r3, [r7, #4]
 8056ba4:	43db      	mvns	r3, r3
 8056ba6:	401a      	ands	r2, r3
 8056ba8:	6979      	ldr	r1, [r7, #20]
 8056baa:	68bb      	ldr	r3, [r7, #8]
 8056bac:	33b8      	adds	r3, #184	; 0xb8
 8056bae:	009b      	lsls	r3, r3, #2
 8056bb0:	440b      	add	r3, r1
 8056bb2:	605a      	str	r2, [r3, #4]
 8056bb4:	4b06      	ldr	r3, [pc, #24]	; (8056bd0 <ulTaskGenericNotifyValueClear+0x74>)
 8056bb6:	4798      	blx	r3
 8056bb8:	693b      	ldr	r3, [r7, #16]
 8056bba:	4618      	mov	r0, r3
 8056bbc:	3718      	adds	r7, #24
 8056bbe:	46bd      	mov	sp, r7
 8056bc0:	bd80      	pop	{r7, pc}
 8056bc2:	bf00      	nop
 8056bc4:	0805f1c7 	.word	0x0805f1c7
 8056bc8:	20000100 	.word	0x20000100
 8056bcc:	0805ecc5 	.word	0x0805ecc5
 8056bd0:	0805eced 	.word	0x0805eced

08056bd4 <vTaskSetTimeOutState>:
 8056bd4:	b580      	push	{r7, lr}
 8056bd6:	b082      	sub	sp, #8
 8056bd8:	af00      	add	r7, sp, #0
 8056bda:	6078      	str	r0, [r7, #4]
 8056bdc:	687b      	ldr	r3, [r7, #4]
 8056bde:	2b00      	cmp	r3, #0
 8056be0:	d102      	bne.n	8056be8 <vTaskSetTimeOutState+0x14>
 8056be2:	4b09      	ldr	r3, [pc, #36]	; (8056c08 <vTaskSetTimeOutState+0x34>)
 8056be4:	4798      	blx	r3
 8056be6:	e7fe      	b.n	8056be6 <vTaskSetTimeOutState+0x12>
 8056be8:	4b08      	ldr	r3, [pc, #32]	; (8056c0c <vTaskSetTimeOutState+0x38>)
 8056bea:	4798      	blx	r3
 8056bec:	4b08      	ldr	r3, [pc, #32]	; (8056c10 <vTaskSetTimeOutState+0x3c>)
 8056bee:	681a      	ldr	r2, [r3, #0]
 8056bf0:	687b      	ldr	r3, [r7, #4]
 8056bf2:	601a      	str	r2, [r3, #0]
 8056bf4:	4b07      	ldr	r3, [pc, #28]	; (8056c14 <vTaskSetTimeOutState+0x40>)
 8056bf6:	681a      	ldr	r2, [r3, #0]
 8056bf8:	687b      	ldr	r3, [r7, #4]
 8056bfa:	605a      	str	r2, [r3, #4]
 8056bfc:	4b06      	ldr	r3, [pc, #24]	; (8056c18 <vTaskSetTimeOutState+0x44>)
 8056bfe:	4798      	blx	r3
 8056c00:	bf00      	nop
 8056c02:	3708      	adds	r7, #8
 8056c04:	46bd      	mov	sp, r7
 8056c06:	bd80      	pop	{r7, pc}
 8056c08:	0805f1c7 	.word	0x0805f1c7
 8056c0c:	0805ecc5 	.word	0x0805ecc5
 8056c10:	200002cc 	.word	0x200002cc
 8056c14:	200002b8 	.word	0x200002b8
 8056c18:	0805eced 	.word	0x0805eced

08056c1c <xTaskCheckForTimeOut>:
 8056c1c:	b580      	push	{r7, lr}
 8056c1e:	b086      	sub	sp, #24
 8056c20:	af00      	add	r7, sp, #0
 8056c22:	6078      	str	r0, [r7, #4]
 8056c24:	6039      	str	r1, [r7, #0]
 8056c26:	687b      	ldr	r3, [r7, #4]
 8056c28:	2b00      	cmp	r3, #0
 8056c2a:	d102      	bne.n	8056c32 <xTaskCheckForTimeOut+0x16>
 8056c2c:	4b24      	ldr	r3, [pc, #144]	; (8056cc0 <xTaskCheckForTimeOut+0xa4>)
 8056c2e:	4798      	blx	r3
 8056c30:	e7fe      	b.n	8056c30 <xTaskCheckForTimeOut+0x14>
 8056c32:	683b      	ldr	r3, [r7, #0]
 8056c34:	2b00      	cmp	r3, #0
 8056c36:	d102      	bne.n	8056c3e <xTaskCheckForTimeOut+0x22>
 8056c38:	4b21      	ldr	r3, [pc, #132]	; (8056cc0 <xTaskCheckForTimeOut+0xa4>)
 8056c3a:	4798      	blx	r3
 8056c3c:	e7fe      	b.n	8056c3c <xTaskCheckForTimeOut+0x20>
 8056c3e:	4b21      	ldr	r3, [pc, #132]	; (8056cc4 <xTaskCheckForTimeOut+0xa8>)
 8056c40:	4798      	blx	r3
 8056c42:	4b21      	ldr	r3, [pc, #132]	; (8056cc8 <xTaskCheckForTimeOut+0xac>)
 8056c44:	681b      	ldr	r3, [r3, #0]
 8056c46:	613b      	str	r3, [r7, #16]
 8056c48:	687b      	ldr	r3, [r7, #4]
 8056c4a:	685b      	ldr	r3, [r3, #4]
 8056c4c:	693a      	ldr	r2, [r7, #16]
 8056c4e:	1ad3      	subs	r3, r2, r3
 8056c50:	60fb      	str	r3, [r7, #12]
 8056c52:	683b      	ldr	r3, [r7, #0]
 8056c54:	681b      	ldr	r3, [r3, #0]
 8056c56:	f1b3 3fff 	cmp.w	r3, #4294967295	; 0xffffffff
 8056c5a:	d102      	bne.n	8056c62 <xTaskCheckForTimeOut+0x46>
 8056c5c:	2300      	movs	r3, #0
 8056c5e:	617b      	str	r3, [r7, #20]
 8056c60:	e026      	b.n	8056cb0 <xTaskCheckForTimeOut+0x94>
 8056c62:	687b      	ldr	r3, [r7, #4]
 8056c64:	681a      	ldr	r2, [r3, #0]
 8056c66:	4b19      	ldr	r3, [pc, #100]	; (8056ccc <xTaskCheckForTimeOut+0xb0>)
 8056c68:	681b      	ldr	r3, [r3, #0]
 8056c6a:	429a      	cmp	r2, r3
 8056c6c:	d00a      	beq.n	8056c84 <xTaskCheckForTimeOut+0x68>
 8056c6e:	687b      	ldr	r3, [r7, #4]
 8056c70:	685b      	ldr	r3, [r3, #4]
 8056c72:	693a      	ldr	r2, [r7, #16]
 8056c74:	429a      	cmp	r2, r3
 8056c76:	d305      	bcc.n	8056c84 <xTaskCheckForTimeOut+0x68>
 8056c78:	2301      	movs	r3, #1
 8056c7a:	617b      	str	r3, [r7, #20]
 8056c7c:	683b      	ldr	r3, [r7, #0]
 8056c7e:	2200      	movs	r2, #0
 8056c80:	601a      	str	r2, [r3, #0]
 8056c82:	e015      	b.n	8056cb0 <xTaskCheckForTimeOut+0x94>
 8056c84:	683b      	ldr	r3, [r7, #0]
 8056c86:	681b      	ldr	r3, [r3, #0]
 8056c88:	68fa      	ldr	r2, [r7, #12]
 8056c8a:	429a      	cmp	r2, r3
 8056c8c:	d20b      	bcs.n	8056ca6 <xTaskCheckForTimeOut+0x8a>
 8056c8e:	683b      	ldr	r3, [r7, #0]
 8056c90:	681a      	ldr	r2, [r3, #0]
 8056c92:	68fb      	ldr	r3, [r7, #12]
 8056c94:	1ad2      	subs	r2, r2, r3
 8056c96:	683b      	ldr	r3, [r7, #0]
 8056c98:	601a      	str	r2, [r3, #0]
 8056c9a:	6878      	ldr	r0, [r7, #4]
 8056c9c:	f000 fec6 	bl	8057a2c <vTaskInternalSetTimeOutState>
 8056ca0:	2300      	movs	r3, #0
 8056ca2:	617b      	str	r3, [r7, #20]
 8056ca4:	e004      	b.n	8056cb0 <xTaskCheckForTimeOut+0x94>
 8056ca6:	683b      	ldr	r3, [r7, #0]
 8056ca8:	2200      	movs	r2, #0
 8056caa:	601a      	str	r2, [r3, #0]
 8056cac:	2301      	movs	r3, #1
 8056cae:	617b      	str	r3, [r7, #20]
 8056cb0:	4b07      	ldr	r3, [pc, #28]	; (8056cd0 <xTaskCheckForTimeOut+0xb4>)
 8056cb2:	4798      	blx	r3
 8056cb4:	697b      	ldr	r3, [r7, #20]
 8056cb6:	4618      	mov	r0, r3
 8056cb8:	3718      	adds	r7, #24
 8056cba:	46bd      	mov	sp, r7
 8056cbc:	bd80      	pop	{r7, pc}
 8056cbe:	bf00      	nop
 8056cc0:	0805f1c7 	.word	0x0805f1c7
 8056cc4:	0805ecc5 	.word	0x0805ecc5
 8056cc8:	200002b8 	.word	0x200002b8
 8056ccc:	200002cc 	.word	0x200002cc
 8056cd0:	0805eced 	.word	0x0805eced

08056cd4 <xTaskCatchUpTicks>:
 8056cd4:	b580      	push	{r7, lr}
 8056cd6:	b084      	sub	sp, #16
 8056cd8:	af00      	add	r7, sp, #0
 8056cda:	6078      	str	r0, [r7, #4]
 8056cdc:	4b0d      	ldr	r3, [pc, #52]	; (8056d14 <xTaskCatchUpTicks+0x40>)
 8056cde:	681b      	ldr	r3, [r3, #0]
 8056ce0:	2b00      	cmp	r3, #0
 8056ce2:	d002      	beq.n	8056cea <xTaskCatchUpTicks+0x16>
 8056ce4:	4b0c      	ldr	r3, [pc, #48]	; (8056d18 <xTaskCatchUpTicks+0x44>)
 8056ce6:	4798      	blx	r3
 8056ce8:	e7fe      	b.n	8056ce8 <xTaskCatchUpTicks+0x14>
 8056cea:	f7ff f867 	bl	8055dbc <vTaskSuspendAll>
 8056cee:	4b0b      	ldr	r3, [pc, #44]	; (8056d1c <xTaskCatchUpTicks+0x48>)
 8056cf0:	4798      	blx	r3
 8056cf2:	4b0b      	ldr	r3, [pc, #44]	; (8056d20 <xTaskCatchUpTicks+0x4c>)
 8056cf4:	681a      	ldr	r2, [r3, #0]
 8056cf6:	687b      	ldr	r3, [r7, #4]
 8056cf8:	4413      	add	r3, r2
 8056cfa:	4a09      	ldr	r2, [pc, #36]	; (8056d20 <xTaskCatchUpTicks+0x4c>)
 8056cfc:	6013      	str	r3, [r2, #0]
 8056cfe:	4b09      	ldr	r3, [pc, #36]	; (8056d24 <xTaskCatchUpTicks+0x50>)
 8056d00:	4798      	blx	r3
 8056d02:	f7ff f869 	bl	8055dd8 <xTaskResumeAll>
 8056d06:	60f8      	str	r0, [r7, #12]
 8056d08:	68fb      	ldr	r3, [r7, #12]
 8056d0a:	4618      	mov	r0, r3
 8056d0c:	3710      	adds	r7, #16
 8056d0e:	46bd      	mov	sp, r7
 8056d10:	bd80      	pop	{r7, pc}
 8056d12:	bf00      	nop
 8056d14:	200002dc 	.word	0x200002dc
 8056d18:	0805f1c7 	.word	0x0805f1c7
 8056d1c:	0805ecc5 	.word	0x0805ecc5
 8056d20:	200002c4 	.word	0x200002c4
 8056d24:	0805eced 	.word	0x0805eced

08056d28 <xTaskIncrementTick>:
 8056d28:	b580      	push	{r7, lr}
 8056d2a:	b088      	sub	sp, #32
 8056d2c:	af00      	add	r7, sp, #0
 8056d2e:	2300      	movs	r3, #0
 8056d30:	61fb      	str	r3, [r7, #28]
 8056d32:	4b89      	ldr	r3, [pc, #548]	; (8056f58 <xTaskIncrementTick+0x230>)
 8056d34:	681b      	ldr	r3, [r3, #0]
 8056d36:	2b00      	cmp	r3, #0
 8056d38:	f040 8104 	bne.w	8056f44 <xTaskIncrementTick+0x21c>
 8056d3c:	4b87      	ldr	r3, [pc, #540]	; (8056f5c <xTaskIncrementTick+0x234>)
 8056d3e:	681b      	ldr	r3, [r3, #0]
 8056d40:	3301      	adds	r3, #1
 8056d42:	61bb      	str	r3, [r7, #24]
 8056d44:	4a85      	ldr	r2, [pc, #532]	; (8056f5c <xTaskIncrementTick+0x234>)
 8056d46:	69bb      	ldr	r3, [r7, #24]
 8056d48:	6013      	str	r3, [r2, #0]
 8056d4a:	69bb      	ldr	r3, [r7, #24]
 8056d4c:	2b00      	cmp	r3, #0
 8056d4e:	d118      	bne.n	8056d82 <xTaskIncrementTick+0x5a>
 8056d50:	4b83      	ldr	r3, [pc, #524]	; (8056f60 <xTaskIncrementTick+0x238>)
 8056d52:	681b      	ldr	r3, [r3, #0]
 8056d54:	681b      	ldr	r3, [r3, #0]
 8056d56:	2b00      	cmp	r3, #0
 8056d58:	d002      	beq.n	8056d60 <xTaskIncrementTick+0x38>
 8056d5a:	4b82      	ldr	r3, [pc, #520]	; (8056f64 <xTaskIncrementTick+0x23c>)
 8056d5c:	4798      	blx	r3
 8056d5e:	e7fe      	b.n	8056d5e <xTaskIncrementTick+0x36>
 8056d60:	4b7f      	ldr	r3, [pc, #508]	; (8056f60 <xTaskIncrementTick+0x238>)
 8056d62:	681b      	ldr	r3, [r3, #0]
 8056d64:	617b      	str	r3, [r7, #20]
 8056d66:	4b80      	ldr	r3, [pc, #512]	; (8056f68 <xTaskIncrementTick+0x240>)
 8056d68:	681b      	ldr	r3, [r3, #0]
 8056d6a:	4a7d      	ldr	r2, [pc, #500]	; (8056f60 <xTaskIncrementTick+0x238>)
 8056d6c:	6013      	str	r3, [r2, #0]
 8056d6e:	4a7e      	ldr	r2, [pc, #504]	; (8056f68 <xTaskIncrementTick+0x240>)
 8056d70:	697b      	ldr	r3, [r7, #20]
 8056d72:	6013      	str	r3, [r2, #0]
 8056d74:	4b7d      	ldr	r3, [pc, #500]	; (8056f6c <xTaskIncrementTick+0x244>)
 8056d76:	681b      	ldr	r3, [r3, #0]
 8056d78:	3301      	adds	r3, #1
 8056d7a:	4a7c      	ldr	r2, [pc, #496]	; (8056f6c <xTaskIncrementTick+0x244>)
 8056d7c:	6013      	str	r3, [r2, #0]
 8056d7e:	f001 f844 	bl	8057e0a <prvResetNextTaskUnblockTime>
 8056d82:	4b7b      	ldr	r3, [pc, #492]	; (8056f70 <xTaskIncrementTick+0x248>)
 8056d84:	681b      	ldr	r3, [r3, #0]
 8056d86:	69ba      	ldr	r2, [r7, #24]
 8056d88:	429a      	cmp	r2, r3
 8056d8a:	f0c0 80c5 	bcc.w	8056f18 <xTaskIncrementTick+0x1f0>
 8056d8e:	4b74      	ldr	r3, [pc, #464]	; (8056f60 <xTaskIncrementTick+0x238>)
 8056d90:	681b      	ldr	r3, [r3, #0]
 8056d92:	681b      	ldr	r3, [r3, #0]
 8056d94:	2b00      	cmp	r3, #0
 8056d96:	d104      	bne.n	8056da2 <xTaskIncrementTick+0x7a>
 8056d98:	4b75      	ldr	r3, [pc, #468]	; (8056f70 <xTaskIncrementTick+0x248>)
 8056d9a:	f04f 32ff 	mov.w	r2, #4294967295	; 0xffffffff
 8056d9e:	601a      	str	r2, [r3, #0]
 8056da0:	e0ba      	b.n	8056f18 <xTaskIncrementTick+0x1f0>
 8056da2:	4b6f      	ldr	r3, [pc, #444]	; (8056f60 <xTaskIncrementTick+0x238>)
 8056da4:	681b      	ldr	r3, [r3, #0]
 8056da6:	68db      	ldr	r3, [r3, #12]
 8056da8:	68db      	ldr	r3, [r3, #12]
 8056daa:	613b      	str	r3, [r7, #16]
 8056dac:	693b      	ldr	r3, [r7, #16]
 8056dae:	f8d3 3294 	ldr.w	r3, [r3, #660]	; 0x294
 8056db2:	60fb      	str	r3, [r7, #12]
 8056db4:	69ba      	ldr	r2, [r7, #24]
 8056db6:	68fb      	ldr	r3, [r7, #12]
 8056db8:	429a      	cmp	r2, r3
 8056dba:	d203      	bcs.n	8056dc4 <xTaskIncrementTick+0x9c>
 8056dbc:	4a6c      	ldr	r2, [pc, #432]	; (8056f70 <xTaskIncrementTick+0x248>)
 8056dbe:	68fb      	ldr	r3, [r7, #12]
 8056dc0:	6013      	str	r3, [r2, #0]
 8056dc2:	e0a9      	b.n	8056f18 <xTaskIncrementTick+0x1f0>
 8056dc4:	693b      	ldr	r3, [r7, #16]
 8056dc6:	f8d3 32a4 	ldr.w	r3, [r3, #676]	; 0x2a4
 8056dca:	60bb      	str	r3, [r7, #8]
 8056dcc:	693b      	ldr	r3, [r7, #16]
 8056dce:	f8d3 3298 	ldr.w	r3, [r3, #664]	; 0x298
 8056dd2:	693a      	ldr	r2, [r7, #16]
 8056dd4:	f8d2 229c 	ldr.w	r2, [r2, #668]	; 0x29c
 8056dd8:	609a      	str	r2, [r3, #8]
 8056dda:	693b      	ldr	r3, [r7, #16]
 8056ddc:	f8d3 329c 	ldr.w	r3, [r3, #668]	; 0x29c
 8056de0:	693a      	ldr	r2, [r7, #16]
 8056de2:	f8d2 2298 	ldr.w	r2, [r2, #664]	; 0x298
 8056de6:	605a      	str	r2, [r3, #4]
 8056de8:	68bb      	ldr	r3, [r7, #8]
 8056dea:	685a      	ldr	r2, [r3, #4]
 8056dec:	693b      	ldr	r3, [r7, #16]
 8056dee:	f503 7325 	add.w	r3, r3, #660	; 0x294
 8056df2:	429a      	cmp	r2, r3
 8056df4:	d104      	bne.n	8056e00 <xTaskIncrementTick+0xd8>
 8056df6:	693b      	ldr	r3, [r7, #16]
 8056df8:	f8d3 229c 	ldr.w	r2, [r3, #668]	; 0x29c
 8056dfc:	68bb      	ldr	r3, [r7, #8]
 8056dfe:	605a      	str	r2, [r3, #4]
 8056e00:	693b      	ldr	r3, [r7, #16]
 8056e02:	2200      	movs	r2, #0
 8056e04:	f8c3 22a4 	str.w	r2, [r3, #676]	; 0x2a4
 8056e08:	68bb      	ldr	r3, [r7, #8]
 8056e0a:	681b      	ldr	r3, [r3, #0]
 8056e0c:	1e5a      	subs	r2, r3, #1
 8056e0e:	68bb      	ldr	r3, [r7, #8]
 8056e10:	601a      	str	r2, [r3, #0]
 8056e12:	693b      	ldr	r3, [r7, #16]
 8056e14:	f8d3 32b8 	ldr.w	r3, [r3, #696]	; 0x2b8
 8056e18:	2b00      	cmp	r3, #0
 8056e1a:	d026      	beq.n	8056e6a <xTaskIncrementTick+0x142>
 8056e1c:	693b      	ldr	r3, [r7, #16]
 8056e1e:	f8d3 32b8 	ldr.w	r3, [r3, #696]	; 0x2b8
 8056e22:	607b      	str	r3, [r7, #4]
 8056e24:	693b      	ldr	r3, [r7, #16]
 8056e26:	f8d3 32ac 	ldr.w	r3, [r3, #684]	; 0x2ac
 8056e2a:	693a      	ldr	r2, [r7, #16]
 8056e2c:	f8d2 22b0 	ldr.w	r2, [r2, #688]	; 0x2b0
 8056e30:	609a      	str	r2, [r3, #8]
 8056e32:	693b      	ldr	r3, [r7, #16]
 8056e34:	f8d3 32b0 	ldr.w	r3, [r3, #688]	; 0x2b0
 8056e38:	693a      	ldr	r2, [r7, #16]
 8056e3a:	f8d2 22ac 	ldr.w	r2, [r2, #684]	; 0x2ac
 8056e3e:	605a      	str	r2, [r3, #4]
 8056e40:	687b      	ldr	r3, [r7, #4]
 8056e42:	685a      	ldr	r2, [r3, #4]
 8056e44:	693b      	ldr	r3, [r7, #16]
 8056e46:	f503 732a 	add.w	r3, r3, #680	; 0x2a8
 8056e4a:	429a      	cmp	r2, r3
 8056e4c:	d104      	bne.n	8056e58 <xTaskIncrementTick+0x130>
 8056e4e:	693b      	ldr	r3, [r7, #16]
 8056e50:	f8d3 22b0 	ldr.w	r2, [r3, #688]	; 0x2b0
 8056e54:	687b      	ldr	r3, [r7, #4]
 8056e56:	605a      	str	r2, [r3, #4]
 8056e58:	693b      	ldr	r3, [r7, #16]
 8056e5a:	2200      	movs	r2, #0
 8056e5c:	f8c3 22b8 	str.w	r2, [r3, #696]	; 0x2b8
 8056e60:	687b      	ldr	r3, [r7, #4]
 8056e62:	681b      	ldr	r3, [r3, #0]
 8056e64:	1e5a      	subs	r2, r3, #1
 8056e66:	687b      	ldr	r3, [r7, #4]
 8056e68:	601a      	str	r2, [r3, #0]
 8056e6a:	693b      	ldr	r3, [r7, #16]
 8056e6c:	f8d3 22bc 	ldr.w	r2, [r3, #700]	; 0x2bc
 8056e70:	4b40      	ldr	r3, [pc, #256]	; (8056f74 <xTaskIncrementTick+0x24c>)
 8056e72:	681b      	ldr	r3, [r3, #0]
 8056e74:	429a      	cmp	r2, r3
 8056e76:	d904      	bls.n	8056e82 <xTaskIncrementTick+0x15a>
 8056e78:	693b      	ldr	r3, [r7, #16]
 8056e7a:	f8d3 32bc 	ldr.w	r3, [r3, #700]	; 0x2bc
 8056e7e:	4a3d      	ldr	r2, [pc, #244]	; (8056f74 <xTaskIncrementTick+0x24c>)
 8056e80:	6013      	str	r3, [r2, #0]
 8056e82:	693b      	ldr	r3, [r7, #16]
 8056e84:	f8d3 22bc 	ldr.w	r2, [r3, #700]	; 0x2bc
 8056e88:	493b      	ldr	r1, [pc, #236]	; (8056f78 <xTaskIncrementTick+0x250>)
 8056e8a:	4613      	mov	r3, r2
 8056e8c:	009b      	lsls	r3, r3, #2
 8056e8e:	4413      	add	r3, r2
 8056e90:	009b      	lsls	r3, r3, #2
 8056e92:	440b      	add	r3, r1
 8056e94:	3304      	adds	r3, #4
 8056e96:	681b      	ldr	r3, [r3, #0]
 8056e98:	603b      	str	r3, [r7, #0]
 8056e9a:	693b      	ldr	r3, [r7, #16]
 8056e9c:	683a      	ldr	r2, [r7, #0]
 8056e9e:	f8c3 2298 	str.w	r2, [r3, #664]	; 0x298
 8056ea2:	683b      	ldr	r3, [r7, #0]
 8056ea4:	689a      	ldr	r2, [r3, #8]
 8056ea6:	693b      	ldr	r3, [r7, #16]
 8056ea8:	f8c3 229c 	str.w	r2, [r3, #668]	; 0x29c
 8056eac:	683b      	ldr	r3, [r7, #0]
 8056eae:	689b      	ldr	r3, [r3, #8]
 8056eb0:	693a      	ldr	r2, [r7, #16]
 8056eb2:	f502 7225 	add.w	r2, r2, #660	; 0x294
 8056eb6:	605a      	str	r2, [r3, #4]
 8056eb8:	693b      	ldr	r3, [r7, #16]
 8056eba:	f503 7225 	add.w	r2, r3, #660	; 0x294
 8056ebe:	683b      	ldr	r3, [r7, #0]
 8056ec0:	609a      	str	r2, [r3, #8]
 8056ec2:	693b      	ldr	r3, [r7, #16]
 8056ec4:	f8d3 22bc 	ldr.w	r2, [r3, #700]	; 0x2bc
 8056ec8:	4613      	mov	r3, r2
 8056eca:	009b      	lsls	r3, r3, #2
 8056ecc:	4413      	add	r3, r2
 8056ece:	009b      	lsls	r3, r3, #2
 8056ed0:	4a29      	ldr	r2, [pc, #164]	; (8056f78 <xTaskIncrementTick+0x250>)
 8056ed2:	441a      	add	r2, r3
 8056ed4:	693b      	ldr	r3, [r7, #16]
 8056ed6:	f8c3 22a4 	str.w	r2, [r3, #676]	; 0x2a4
 8056eda:	693b      	ldr	r3, [r7, #16]
 8056edc:	f8d3 22bc 	ldr.w	r2, [r3, #700]	; 0x2bc
 8056ee0:	4925      	ldr	r1, [pc, #148]	; (8056f78 <xTaskIncrementTick+0x250>)
 8056ee2:	4613      	mov	r3, r2
 8056ee4:	009b      	lsls	r3, r3, #2
 8056ee6:	4413      	add	r3, r2
 8056ee8:	009b      	lsls	r3, r3, #2
 8056eea:	440b      	add	r3, r1
 8056eec:	681b      	ldr	r3, [r3, #0]
 8056eee:	1c59      	adds	r1, r3, #1
 8056ef0:	4821      	ldr	r0, [pc, #132]	; (8056f78 <xTaskIncrementTick+0x250>)
 8056ef2:	4613      	mov	r3, r2
 8056ef4:	009b      	lsls	r3, r3, #2
 8056ef6:	4413      	add	r3, r2
 8056ef8:	009b      	lsls	r3, r3, #2
 8056efa:	4403      	add	r3, r0
 8056efc:	6019      	str	r1, [r3, #0]
 8056efe:	693b      	ldr	r3, [r7, #16]
 8056f00:	f8d3 22bc 	ldr.w	r2, [r3, #700]	; 0x2bc
 8056f04:	4b1d      	ldr	r3, [pc, #116]	; (8056f7c <xTaskIncrementTick+0x254>)
 8056f06:	681b      	ldr	r3, [r3, #0]
 8056f08:	f8d3 32bc 	ldr.w	r3, [r3, #700]	; 0x2bc
 8056f0c:	429a      	cmp	r2, r3
 8056f0e:	f67f af3e 	bls.w	8056d8e <xTaskIncrementTick+0x66>
 8056f12:	2301      	movs	r3, #1
 8056f14:	61fb      	str	r3, [r7, #28]
 8056f16:	e73a      	b.n	8056d8e <xTaskIncrementTick+0x66>
 8056f18:	4b18      	ldr	r3, [pc, #96]	; (8056f7c <xTaskIncrementTick+0x254>)
 8056f1a:	681b      	ldr	r3, [r3, #0]
 8056f1c:	f8d3 22bc 	ldr.w	r2, [r3, #700]	; 0x2bc
 8056f20:	4915      	ldr	r1, [pc, #84]	; (8056f78 <xTaskIncrementTick+0x250>)
 8056f22:	4613      	mov	r3, r2
 8056f24:	009b      	lsls	r3, r3, #2
 8056f26:	4413      	add	r3, r2
 8056f28:	009b      	lsls	r3, r3, #2
 8056f2a:	440b      	add	r3, r1
 8056f2c:	681b      	ldr	r3, [r3, #0]
 8056f2e:	2b01      	cmp	r3, #1
 8056f30:	d901      	bls.n	8056f36 <xTaskIncrementTick+0x20e>
 8056f32:	2301      	movs	r3, #1
 8056f34:	61fb      	str	r3, [r7, #28]
 8056f36:	4b12      	ldr	r3, [pc, #72]	; (8056f80 <xTaskIncrementTick+0x258>)
 8056f38:	681b      	ldr	r3, [r3, #0]
 8056f3a:	2b00      	cmp	r3, #0
 8056f3c:	d007      	beq.n	8056f4e <xTaskIncrementTick+0x226>
 8056f3e:	2301      	movs	r3, #1
 8056f40:	61fb      	str	r3, [r7, #28]
 8056f42:	e004      	b.n	8056f4e <xTaskIncrementTick+0x226>
 8056f44:	4b0f      	ldr	r3, [pc, #60]	; (8056f84 <xTaskIncrementTick+0x25c>)
 8056f46:	681b      	ldr	r3, [r3, #0]
 8056f48:	3301      	adds	r3, #1
 8056f4a:	4a0e      	ldr	r2, [pc, #56]	; (8056f84 <xTaskIncrementTick+0x25c>)
 8056f4c:	6013      	str	r3, [r2, #0]
 8056f4e:	69fb      	ldr	r3, [r7, #28]
 8056f50:	4618      	mov	r0, r3
 8056f52:	3720      	adds	r7, #32
 8056f54:	46bd      	mov	sp, r7
 8056f56:	bd80      	pop	{r7, pc}
 8056f58:	200002dc 	.word	0x200002dc
 8056f5c:	200002b8 	.word	0x200002b8
 8056f60:	2000026c 	.word	0x2000026c
 8056f64:	0805f1c7 	.word	0x0805f1c7
 8056f68:	20000270 	.word	0x20000270
 8056f6c:	200002cc 	.word	0x200002cc
 8056f70:	200002d4 	.word	0x200002d4
 8056f74:	200002bc 	.word	0x200002bc
 8056f78:	20000104 	.word	0x20000104
 8056f7c:	20000100 	.word	0x20000100
 8056f80:	200002c8 	.word	0x200002c8
 8056f84:	200002c4 	.word	0x200002c4

08056f88 <vTaskPlaceOnEventList>:
 8056f88:	b580      	push	{r7, lr}
 8056f8a:	b082      	sub	sp, #8
 8056f8c:	af00      	add	r7, sp, #0
 8056f8e:	6078      	str	r0, [r7, #4]
 8056f90:	6039      	str	r1, [r7, #0]
 8056f92:	687b      	ldr	r3, [r7, #4]
 8056f94:	2b00      	cmp	r3, #0
 8056f96:	d102      	bne.n	8056f9e <vTaskPlaceOnEventList+0x16>
 8056f98:	4b09      	ldr	r3, [pc, #36]	; (8056fc0 <vTaskPlaceOnEventList+0x38>)
 8056f9a:	4798      	blx	r3
 8056f9c:	e7fe      	b.n	8056f9c <vTaskPlaceOnEventList+0x14>
 8056f9e:	4b09      	ldr	r3, [pc, #36]	; (8056fc4 <vTaskPlaceOnEventList+0x3c>)
 8056fa0:	681b      	ldr	r3, [r3, #0]
 8056fa2:	f503 732a 	add.w	r3, r3, #680	; 0x2a8
 8056fa6:	4619      	mov	r1, r3
 8056fa8:	6878      	ldr	r0, [r7, #4]
 8056faa:	4b07      	ldr	r3, [pc, #28]	; (8056fc8 <vTaskPlaceOnEventList+0x40>)
 8056fac:	4798      	blx	r3
 8056fae:	2101      	movs	r1, #1
 8056fb0:	6838      	ldr	r0, [r7, #0]
 8056fb2:	f000 fe43 	bl	8057c3c <prvAddCurrentTaskToDelayedList>
 8056fb6:	bf00      	nop
 8056fb8:	3708      	adds	r7, #8
 8056fba:	46bd      	mov	sp, r7
 8056fbc:	bd80      	pop	{r7, pc}
 8056fbe:	bf00      	nop
 8056fc0:	0805f1c7 	.word	0x0805f1c7
 8056fc4:	20000100 	.word	0x20000100
 8056fc8:	0805c393 	.word	0x0805c393

08056fcc <vTaskPlaceOnUnorderedEventList>:
 8056fcc:	b580      	push	{r7, lr}
 8056fce:	b086      	sub	sp, #24
 8056fd0:	af00      	add	r7, sp, #0
 8056fd2:	60f8      	str	r0, [r7, #12]
 8056fd4:	60b9      	str	r1, [r7, #8]
 8056fd6:	607a      	str	r2, [r7, #4]
 8056fd8:	68fb      	ldr	r3, [r7, #12]
 8056fda:	2b00      	cmp	r3, #0
 8056fdc:	d102      	bne.n	8056fe4 <vTaskPlaceOnUnorderedEventList+0x18>
 8056fde:	4b1f      	ldr	r3, [pc, #124]	; (805705c <vTaskPlaceOnUnorderedEventList+0x90>)
 8056fe0:	4798      	blx	r3
 8056fe2:	e7fe      	b.n	8056fe2 <vTaskPlaceOnUnorderedEventList+0x16>
 8056fe4:	4b1e      	ldr	r3, [pc, #120]	; (8057060 <vTaskPlaceOnUnorderedEventList+0x94>)
 8056fe6:	681b      	ldr	r3, [r3, #0]
 8056fe8:	2b00      	cmp	r3, #0
 8056fea:	d102      	bne.n	8056ff2 <vTaskPlaceOnUnorderedEventList+0x26>
 8056fec:	4b1b      	ldr	r3, [pc, #108]	; (805705c <vTaskPlaceOnUnorderedEventList+0x90>)
 8056fee:	4798      	blx	r3
 8056ff0:	e7fe      	b.n	8056ff0 <vTaskPlaceOnUnorderedEventList+0x24>
 8056ff2:	4b1c      	ldr	r3, [pc, #112]	; (8057064 <vTaskPlaceOnUnorderedEventList+0x98>)
 8056ff4:	681b      	ldr	r3, [r3, #0]
 8056ff6:	68ba      	ldr	r2, [r7, #8]
 8056ff8:	f042 4200 	orr.w	r2, r2, #2147483648	; 0x80000000
 8056ffc:	f8c3 22a8 	str.w	r2, [r3, #680]	; 0x2a8
 8057000:	68fb      	ldr	r3, [r7, #12]
 8057002:	685b      	ldr	r3, [r3, #4]
 8057004:	617b      	str	r3, [r7, #20]
 8057006:	4b17      	ldr	r3, [pc, #92]	; (8057064 <vTaskPlaceOnUnorderedEventList+0x98>)
 8057008:	681b      	ldr	r3, [r3, #0]
 805700a:	697a      	ldr	r2, [r7, #20]
 805700c:	f8c3 22ac 	str.w	r2, [r3, #684]	; 0x2ac
 8057010:	4b14      	ldr	r3, [pc, #80]	; (8057064 <vTaskPlaceOnUnorderedEventList+0x98>)
 8057012:	681b      	ldr	r3, [r3, #0]
 8057014:	697a      	ldr	r2, [r7, #20]
 8057016:	6892      	ldr	r2, [r2, #8]
 8057018:	f8c3 22b0 	str.w	r2, [r3, #688]	; 0x2b0
 805701c:	4b11      	ldr	r3, [pc, #68]	; (8057064 <vTaskPlaceOnUnorderedEventList+0x98>)
 805701e:	681a      	ldr	r2, [r3, #0]
 8057020:	697b      	ldr	r3, [r7, #20]
 8057022:	689b      	ldr	r3, [r3, #8]
 8057024:	f502 722a 	add.w	r2, r2, #680	; 0x2a8
 8057028:	605a      	str	r2, [r3, #4]
 805702a:	4b0e      	ldr	r3, [pc, #56]	; (8057064 <vTaskPlaceOnUnorderedEventList+0x98>)
 805702c:	681b      	ldr	r3, [r3, #0]
 805702e:	f503 722a 	add.w	r2, r3, #680	; 0x2a8
 8057032:	697b      	ldr	r3, [r7, #20]
 8057034:	609a      	str	r2, [r3, #8]
 8057036:	4b0b      	ldr	r3, [pc, #44]	; (8057064 <vTaskPlaceOnUnorderedEventList+0x98>)
 8057038:	681b      	ldr	r3, [r3, #0]
 805703a:	68fa      	ldr	r2, [r7, #12]
 805703c:	f8c3 22b8 	str.w	r2, [r3, #696]	; 0x2b8
 8057040:	68fb      	ldr	r3, [r7, #12]
 8057042:	681b      	ldr	r3, [r3, #0]
 8057044:	1c5a      	adds	r2, r3, #1
 8057046:	68fb      	ldr	r3, [r7, #12]
 8057048:	601a      	str	r2, [r3, #0]
 805704a:	2101      	movs	r1, #1
 805704c:	6878      	ldr	r0, [r7, #4]
 805704e:	f000 fdf5 	bl	8057c3c <prvAddCurrentTaskToDelayedList>
 8057052:	bf00      	nop
 8057054:	3718      	adds	r7, #24
 8057056:	46bd      	mov	sp, r7
 8057058:	bd80      	pop	{r7, pc}
 805705a:	bf00      	nop
 805705c:	0805f1c7 	.word	0x0805f1c7
 8057060:	200002dc 	.word	0x200002dc
 8057064:	20000100 	.word	0x20000100

08057068 <vTaskPlaceOnEventListRestricted>:
 8057068:	b580      	push	{r7, lr}
 805706a:	b086      	sub	sp, #24
 805706c:	af00      	add	r7, sp, #0
 805706e:	60f8      	str	r0, [r7, #12]
 8057070:	60b9      	str	r1, [r7, #8]
 8057072:	607a      	str	r2, [r7, #4]
 8057074:	68fb      	ldr	r3, [r7, #12]
 8057076:	2b00      	cmp	r3, #0
 8057078:	d102      	bne.n	8057080 <vTaskPlaceOnEventListRestricted+0x18>
 805707a:	4b1b      	ldr	r3, [pc, #108]	; (80570e8 <vTaskPlaceOnEventListRestricted+0x80>)
 805707c:	4798      	blx	r3
 805707e:	e7fe      	b.n	805707e <vTaskPlaceOnEventListRestricted+0x16>
 8057080:	68fb      	ldr	r3, [r7, #12]
 8057082:	685b      	ldr	r3, [r3, #4]
 8057084:	617b      	str	r3, [r7, #20]
 8057086:	4b19      	ldr	r3, [pc, #100]	; (80570ec <vTaskPlaceOnEventListRestricted+0x84>)
 8057088:	681b      	ldr	r3, [r3, #0]
 805708a:	697a      	ldr	r2, [r7, #20]
 805708c:	f8c3 22ac 	str.w	r2, [r3, #684]	; 0x2ac
 8057090:	4b16      	ldr	r3, [pc, #88]	; (80570ec <vTaskPlaceOnEventListRestricted+0x84>)
 8057092:	681b      	ldr	r3, [r3, #0]
 8057094:	697a      	ldr	r2, [r7, #20]
 8057096:	6892      	ldr	r2, [r2, #8]
 8057098:	f8c3 22b0 	str.w	r2, [r3, #688]	; 0x2b0
 805709c:	4b13      	ldr	r3, [pc, #76]	; (80570ec <vTaskPlaceOnEventListRestricted+0x84>)
 805709e:	681a      	ldr	r2, [r3, #0]
 80570a0:	697b      	ldr	r3, [r7, #20]
 80570a2:	689b      	ldr	r3, [r3, #8]
 80570a4:	f502 722a 	add.w	r2, r2, #680	; 0x2a8
 80570a8:	605a      	str	r2, [r3, #4]
 80570aa:	4b10      	ldr	r3, [pc, #64]	; (80570ec <vTaskPlaceOnEventListRestricted+0x84>)
 80570ac:	681b      	ldr	r3, [r3, #0]
 80570ae:	f503 722a 	add.w	r2, r3, #680	; 0x2a8
 80570b2:	697b      	ldr	r3, [r7, #20]
 80570b4:	609a      	str	r2, [r3, #8]
 80570b6:	4b0d      	ldr	r3, [pc, #52]	; (80570ec <vTaskPlaceOnEventListRestricted+0x84>)
 80570b8:	681b      	ldr	r3, [r3, #0]
 80570ba:	68fa      	ldr	r2, [r7, #12]
 80570bc:	f8c3 22b8 	str.w	r2, [r3, #696]	; 0x2b8
 80570c0:	68fb      	ldr	r3, [r7, #12]
 80570c2:	681b      	ldr	r3, [r3, #0]
 80570c4:	1c5a      	adds	r2, r3, #1
 80570c6:	68fb      	ldr	r3, [r7, #12]
 80570c8:	601a      	str	r2, [r3, #0]
 80570ca:	687b      	ldr	r3, [r7, #4]
 80570cc:	2b00      	cmp	r3, #0
 80570ce:	d002      	beq.n	80570d6 <vTaskPlaceOnEventListRestricted+0x6e>
 80570d0:	f04f 33ff 	mov.w	r3, #4294967295	; 0xffffffff
 80570d4:	60bb      	str	r3, [r7, #8]
 80570d6:	6879      	ldr	r1, [r7, #4]
 80570d8:	68b8      	ldr	r0, [r7, #8]
 80570da:	f000 fdaf 	bl	8057c3c <prvAddCurrentTaskToDelayedList>
 80570de:	bf00      	nop
 80570e0:	3718      	adds	r7, #24
 80570e2:	46bd      	mov	sp, r7
 80570e4:	bd80      	pop	{r7, pc}
 80570e6:	bf00      	nop
 80570e8:	0805f1c7 	.word	0x0805f1c7
 80570ec:	20000100 	.word	0x20000100

080570f0 <xTaskRemoveFromEventList>:
 80570f0:	b580      	push	{r7, lr}
 80570f2:	b088      	sub	sp, #32
 80570f4:	af00      	add	r7, sp, #0
 80570f6:	6078      	str	r0, [r7, #4]
 80570f8:	687b      	ldr	r3, [r7, #4]
 80570fa:	68db      	ldr	r3, [r3, #12]
 80570fc:	68db      	ldr	r3, [r3, #12]
 80570fe:	61bb      	str	r3, [r7, #24]
 8057100:	69bb      	ldr	r3, [r7, #24]
 8057102:	2b00      	cmp	r3, #0
 8057104:	d102      	bne.n	805710c <xTaskRemoveFromEventList+0x1c>
 8057106:	4b6b      	ldr	r3, [pc, #428]	; (80572b4 <xTaskRemoveFromEventList+0x1c4>)
 8057108:	4798      	blx	r3
 805710a:	e7fe      	b.n	805710a <xTaskRemoveFromEventList+0x1a>
 805710c:	69bb      	ldr	r3, [r7, #24]
 805710e:	f8d3 32b8 	ldr.w	r3, [r3, #696]	; 0x2b8
 8057112:	617b      	str	r3, [r7, #20]
 8057114:	69bb      	ldr	r3, [r7, #24]
 8057116:	f8d3 32ac 	ldr.w	r3, [r3, #684]	; 0x2ac
 805711a:	69ba      	ldr	r2, [r7, #24]
 805711c:	f8d2 22b0 	ldr.w	r2, [r2, #688]	; 0x2b0
 8057120:	609a      	str	r2, [r3, #8]
 8057122:	69bb      	ldr	r3, [r7, #24]
 8057124:	f8d3 32b0 	ldr.w	r3, [r3, #688]	; 0x2b0
 8057128:	69ba      	ldr	r2, [r7, #24]
 805712a:	f8d2 22ac 	ldr.w	r2, [r2, #684]	; 0x2ac
 805712e:	605a      	str	r2, [r3, #4]
 8057130:	697b      	ldr	r3, [r7, #20]
 8057132:	685a      	ldr	r2, [r3, #4]
 8057134:	69bb      	ldr	r3, [r7, #24]
 8057136:	f503 732a 	add.w	r3, r3, #680	; 0x2a8
 805713a:	429a      	cmp	r2, r3
 805713c:	d104      	bne.n	8057148 <xTaskRemoveFromEventList+0x58>
 805713e:	69bb      	ldr	r3, [r7, #24]
 8057140:	f8d3 22b0 	ldr.w	r2, [r3, #688]	; 0x2b0
 8057144:	697b      	ldr	r3, [r7, #20]
 8057146:	605a      	str	r2, [r3, #4]
 8057148:	69bb      	ldr	r3, [r7, #24]
 805714a:	2200      	movs	r2, #0
 805714c:	f8c3 22b8 	str.w	r2, [r3, #696]	; 0x2b8
 8057150:	697b      	ldr	r3, [r7, #20]
 8057152:	681b      	ldr	r3, [r3, #0]
 8057154:	1e5a      	subs	r2, r3, #1
 8057156:	697b      	ldr	r3, [r7, #20]
 8057158:	601a      	str	r2, [r3, #0]
 805715a:	4b57      	ldr	r3, [pc, #348]	; (80572b8 <xTaskRemoveFromEventList+0x1c8>)
 805715c:	681b      	ldr	r3, [r3, #0]
 805715e:	2b00      	cmp	r3, #0
 8057160:	d171      	bne.n	8057246 <xTaskRemoveFromEventList+0x156>
 8057162:	69bb      	ldr	r3, [r7, #24]
 8057164:	f8d3 32a4 	ldr.w	r3, [r3, #676]	; 0x2a4
 8057168:	60fb      	str	r3, [r7, #12]
 805716a:	69bb      	ldr	r3, [r7, #24]
 805716c:	f8d3 3298 	ldr.w	r3, [r3, #664]	; 0x298
 8057170:	69ba      	ldr	r2, [r7, #24]
 8057172:	f8d2 229c 	ldr.w	r2, [r2, #668]	; 0x29c
 8057176:	609a      	str	r2, [r3, #8]
 8057178:	69bb      	ldr	r3, [r7, #24]
 805717a:	f8d3 329c 	ldr.w	r3, [r3, #668]	; 0x29c
 805717e:	69ba      	ldr	r2, [r7, #24]
 8057180:	f8d2 2298 	ldr.w	r2, [r2, #664]	; 0x298
 8057184:	605a      	str	r2, [r3, #4]
 8057186:	68fb      	ldr	r3, [r7, #12]
 8057188:	685a      	ldr	r2, [r3, #4]
 805718a:	69bb      	ldr	r3, [r7, #24]
 805718c:	f503 7325 	add.w	r3, r3, #660	; 0x294
 8057190:	429a      	cmp	r2, r3
 8057192:	d104      	bne.n	805719e <xTaskRemoveFromEventList+0xae>
 8057194:	69bb      	ldr	r3, [r7, #24]
 8057196:	f8d3 229c 	ldr.w	r2, [r3, #668]	; 0x29c
 805719a:	68fb      	ldr	r3, [r7, #12]
 805719c:	605a      	str	r2, [r3, #4]
 805719e:	69bb      	ldr	r3, [r7, #24]
 80571a0:	2200      	movs	r2, #0
 80571a2:	f8c3 22a4 	str.w	r2, [r3, #676]	; 0x2a4
 80571a6:	68fb      	ldr	r3, [r7, #12]
 80571a8:	681b      	ldr	r3, [r3, #0]
 80571aa:	1e5a      	subs	r2, r3, #1
 80571ac:	68fb      	ldr	r3, [r7, #12]
 80571ae:	601a      	str	r2, [r3, #0]
 80571b0:	69bb      	ldr	r3, [r7, #24]
 80571b2:	f8d3 22bc 	ldr.w	r2, [r3, #700]	; 0x2bc
 80571b6:	4b41      	ldr	r3, [pc, #260]	; (80572bc <xTaskRemoveFromEventList+0x1cc>)
 80571b8:	681b      	ldr	r3, [r3, #0]
 80571ba:	429a      	cmp	r2, r3
 80571bc:	d904      	bls.n	80571c8 <xTaskRemoveFromEventList+0xd8>
 80571be:	69bb      	ldr	r3, [r7, #24]
 80571c0:	f8d3 32bc 	ldr.w	r3, [r3, #700]	; 0x2bc
 80571c4:	4a3d      	ldr	r2, [pc, #244]	; (80572bc <xTaskRemoveFromEventList+0x1cc>)
 80571c6:	6013      	str	r3, [r2, #0]
 80571c8:	69bb      	ldr	r3, [r7, #24]
 80571ca:	f8d3 22bc 	ldr.w	r2, [r3, #700]	; 0x2bc
 80571ce:	493c      	ldr	r1, [pc, #240]	; (80572c0 <xTaskRemoveFromEventList+0x1d0>)
 80571d0:	4613      	mov	r3, r2
 80571d2:	009b      	lsls	r3, r3, #2
 80571d4:	4413      	add	r3, r2
 80571d6:	009b      	lsls	r3, r3, #2
 80571d8:	440b      	add	r3, r1
 80571da:	3304      	adds	r3, #4
 80571dc:	681b      	ldr	r3, [r3, #0]
 80571de:	60bb      	str	r3, [r7, #8]
 80571e0:	69bb      	ldr	r3, [r7, #24]
 80571e2:	68ba      	ldr	r2, [r7, #8]
 80571e4:	f8c3 2298 	str.w	r2, [r3, #664]	; 0x298
 80571e8:	68bb      	ldr	r3, [r7, #8]
 80571ea:	689a      	ldr	r2, [r3, #8]
 80571ec:	69bb      	ldr	r3, [r7, #24]
 80571ee:	f8c3 229c 	str.w	r2, [r3, #668]	; 0x29c
 80571f2:	68bb      	ldr	r3, [r7, #8]
 80571f4:	689b      	ldr	r3, [r3, #8]
 80571f6:	69ba      	ldr	r2, [r7, #24]
 80571f8:	f502 7225 	add.w	r2, r2, #660	; 0x294
 80571fc:	605a      	str	r2, [r3, #4]
 80571fe:	69bb      	ldr	r3, [r7, #24]
 8057200:	f503 7225 	add.w	r2, r3, #660	; 0x294
 8057204:	68bb      	ldr	r3, [r7, #8]
 8057206:	609a      	str	r2, [r3, #8]
 8057208:	69bb      	ldr	r3, [r7, #24]
 805720a:	f8d3 22bc 	ldr.w	r2, [r3, #700]	; 0x2bc
 805720e:	4613      	mov	r3, r2
 8057210:	009b      	lsls	r3, r3, #2
 8057212:	4413      	add	r3, r2
 8057214:	009b      	lsls	r3, r3, #2
 8057216:	4a2a      	ldr	r2, [pc, #168]	; (80572c0 <xTaskRemoveFromEventList+0x1d0>)
 8057218:	441a      	add	r2, r3
 805721a:	69bb      	ldr	r3, [r7, #24]
 805721c:	f8c3 22a4 	str.w	r2, [r3, #676]	; 0x2a4
 8057220:	69bb      	ldr	r3, [r7, #24]
 8057222:	f8d3 22bc 	ldr.w	r2, [r3, #700]	; 0x2bc
 8057226:	4926      	ldr	r1, [pc, #152]	; (80572c0 <xTaskRemoveFromEventList+0x1d0>)
 8057228:	4613      	mov	r3, r2
 805722a:	009b      	lsls	r3, r3, #2
 805722c:	4413      	add	r3, r2
 805722e:	009b      	lsls	r3, r3, #2
 8057230:	440b      	add	r3, r1
 8057232:	681b      	ldr	r3, [r3, #0]
 8057234:	1c59      	adds	r1, r3, #1
 8057236:	4822      	ldr	r0, [pc, #136]	; (80572c0 <xTaskRemoveFromEventList+0x1d0>)
 8057238:	4613      	mov	r3, r2
 805723a:	009b      	lsls	r3, r3, #2
 805723c:	4413      	add	r3, r2
 805723e:	009b      	lsls	r3, r3, #2
 8057240:	4403      	add	r3, r0
 8057242:	6019      	str	r1, [r3, #0]
 8057244:	e01f      	b.n	8057286 <xTaskRemoveFromEventList+0x196>
 8057246:	4b1f      	ldr	r3, [pc, #124]	; (80572c4 <xTaskRemoveFromEventList+0x1d4>)
 8057248:	685b      	ldr	r3, [r3, #4]
 805724a:	613b      	str	r3, [r7, #16]
 805724c:	69bb      	ldr	r3, [r7, #24]
 805724e:	693a      	ldr	r2, [r7, #16]
 8057250:	f8c3 22ac 	str.w	r2, [r3, #684]	; 0x2ac
 8057254:	693b      	ldr	r3, [r7, #16]
 8057256:	689a      	ldr	r2, [r3, #8]
 8057258:	69bb      	ldr	r3, [r7, #24]
 805725a:	f8c3 22b0 	str.w	r2, [r3, #688]	; 0x2b0
 805725e:	693b      	ldr	r3, [r7, #16]
 8057260:	689b      	ldr	r3, [r3, #8]
 8057262:	69ba      	ldr	r2, [r7, #24]
 8057264:	f502 722a 	add.w	r2, r2, #680	; 0x2a8
 8057268:	605a      	str	r2, [r3, #4]
 805726a:	69bb      	ldr	r3, [r7, #24]
 805726c:	f503 722a 	add.w	r2, r3, #680	; 0x2a8
 8057270:	693b      	ldr	r3, [r7, #16]
 8057272:	609a      	str	r2, [r3, #8]
 8057274:	69bb      	ldr	r3, [r7, #24]
 8057276:	4a13      	ldr	r2, [pc, #76]	; (80572c4 <xTaskRemoveFromEventList+0x1d4>)
 8057278:	f8c3 22b8 	str.w	r2, [r3, #696]	; 0x2b8
 805727c:	4b11      	ldr	r3, [pc, #68]	; (80572c4 <xTaskRemoveFromEventList+0x1d4>)
 805727e:	681b      	ldr	r3, [r3, #0]
 8057280:	3301      	adds	r3, #1
 8057282:	4a10      	ldr	r2, [pc, #64]	; (80572c4 <xTaskRemoveFromEventList+0x1d4>)
 8057284:	6013      	str	r3, [r2, #0]
 8057286:	69bb      	ldr	r3, [r7, #24]
 8057288:	f8d3 22bc 	ldr.w	r2, [r3, #700]	; 0x2bc
 805728c:	4b0e      	ldr	r3, [pc, #56]	; (80572c8 <xTaskRemoveFromEventList+0x1d8>)
 805728e:	681b      	ldr	r3, [r3, #0]
 8057290:	f8d3 32bc 	ldr.w	r3, [r3, #700]	; 0x2bc
 8057294:	429a      	cmp	r2, r3
 8057296:	d905      	bls.n	80572a4 <xTaskRemoveFromEventList+0x1b4>
 8057298:	2301      	movs	r3, #1
 805729a:	61fb      	str	r3, [r7, #28]
 805729c:	4b0b      	ldr	r3, [pc, #44]	; (80572cc <xTaskRemoveFromEventList+0x1dc>)
 805729e:	2201      	movs	r2, #1
 80572a0:	601a      	str	r2, [r3, #0]
 80572a2:	e001      	b.n	80572a8 <xTaskRemoveFromEventList+0x1b8>
 80572a4:	2300      	movs	r3, #0
 80572a6:	61fb      	str	r3, [r7, #28]
 80572a8:	69fb      	ldr	r3, [r7, #28]
 80572aa:	4618      	mov	r0, r3
 80572ac:	3720      	adds	r7, #32
 80572ae:	46bd      	mov	sp, r7
 80572b0:	bd80      	pop	{r7, pc}
 80572b2:	bf00      	nop
 80572b4:	0805f1c7 	.word	0x0805f1c7
 80572b8:	200002dc 	.word	0x200002dc
 80572bc:	200002bc 	.word	0x200002bc
 80572c0:	20000104 	.word	0x20000104
 80572c4:	20000274 	.word	0x20000274
 80572c8:	20000100 	.word	0x20000100
 80572cc:	200002c8 	.word	0x200002c8

080572d0 <vTaskRemoveFromUnorderedEventList>:
 80572d0:	b580      	push	{r7, lr}
 80572d2:	b086      	sub	sp, #24
 80572d4:	af00      	add	r7, sp, #0
 80572d6:	6078      	str	r0, [r7, #4]
 80572d8:	6039      	str	r1, [r7, #0]
 80572da:	4b5a      	ldr	r3, [pc, #360]	; (8057444 <vTaskRemoveFromUnorderedEventList+0x174>)
 80572dc:	681b      	ldr	r3, [r3, #0]
 80572de:	2b00      	cmp	r3, #0
 80572e0:	d102      	bne.n	80572e8 <vTaskRemoveFromUnorderedEventList+0x18>
 80572e2:	4b59      	ldr	r3, [pc, #356]	; (8057448 <vTaskRemoveFromUnorderedEventList+0x178>)
 80572e4:	4798      	blx	r3
 80572e6:	e7fe      	b.n	80572e6 <vTaskRemoveFromUnorderedEventList+0x16>
 80572e8:	683b      	ldr	r3, [r7, #0]
 80572ea:	f043 4200 	orr.w	r2, r3, #2147483648	; 0x80000000
 80572ee:	687b      	ldr	r3, [r7, #4]
 80572f0:	601a      	str	r2, [r3, #0]
 80572f2:	687b      	ldr	r3, [r7, #4]
 80572f4:	68db      	ldr	r3, [r3, #12]
 80572f6:	617b      	str	r3, [r7, #20]
 80572f8:	697b      	ldr	r3, [r7, #20]
 80572fa:	2b00      	cmp	r3, #0
 80572fc:	d102      	bne.n	8057304 <vTaskRemoveFromUnorderedEventList+0x34>
 80572fe:	4b52      	ldr	r3, [pc, #328]	; (8057448 <vTaskRemoveFromUnorderedEventList+0x178>)
 8057300:	4798      	blx	r3
 8057302:	e7fe      	b.n	8057302 <vTaskRemoveFromUnorderedEventList+0x32>
 8057304:	687b      	ldr	r3, [r7, #4]
 8057306:	691b      	ldr	r3, [r3, #16]
 8057308:	613b      	str	r3, [r7, #16]
 805730a:	687b      	ldr	r3, [r7, #4]
 805730c:	685b      	ldr	r3, [r3, #4]
 805730e:	687a      	ldr	r2, [r7, #4]
 8057310:	6892      	ldr	r2, [r2, #8]
 8057312:	609a      	str	r2, [r3, #8]
 8057314:	687b      	ldr	r3, [r7, #4]
 8057316:	689b      	ldr	r3, [r3, #8]
 8057318:	687a      	ldr	r2, [r7, #4]
 805731a:	6852      	ldr	r2, [r2, #4]
 805731c:	605a      	str	r2, [r3, #4]
 805731e:	693b      	ldr	r3, [r7, #16]
 8057320:	685b      	ldr	r3, [r3, #4]
 8057322:	687a      	ldr	r2, [r7, #4]
 8057324:	429a      	cmp	r2, r3
 8057326:	d103      	bne.n	8057330 <vTaskRemoveFromUnorderedEventList+0x60>
 8057328:	687b      	ldr	r3, [r7, #4]
 805732a:	689a      	ldr	r2, [r3, #8]
 805732c:	693b      	ldr	r3, [r7, #16]
 805732e:	605a      	str	r2, [r3, #4]
 8057330:	687b      	ldr	r3, [r7, #4]
 8057332:	2200      	movs	r2, #0
 8057334:	611a      	str	r2, [r3, #16]
 8057336:	693b      	ldr	r3, [r7, #16]
 8057338:	681b      	ldr	r3, [r3, #0]
 805733a:	1e5a      	subs	r2, r3, #1
 805733c:	693b      	ldr	r3, [r7, #16]
 805733e:	601a      	str	r2, [r3, #0]
 8057340:	697b      	ldr	r3, [r7, #20]
 8057342:	f8d3 32a4 	ldr.w	r3, [r3, #676]	; 0x2a4
 8057346:	60fb      	str	r3, [r7, #12]
 8057348:	697b      	ldr	r3, [r7, #20]
 805734a:	f8d3 3298 	ldr.w	r3, [r3, #664]	; 0x298
 805734e:	697a      	ldr	r2, [r7, #20]
 8057350:	f8d2 229c 	ldr.w	r2, [r2, #668]	; 0x29c
 8057354:	609a      	str	r2, [r3, #8]
 8057356:	697b      	ldr	r3, [r7, #20]
 8057358:	f8d3 329c 	ldr.w	r3, [r3, #668]	; 0x29c
 805735c:	697a      	ldr	r2, [r7, #20]
 805735e:	f8d2 2298 	ldr.w	r2, [r2, #664]	; 0x298
 8057362:	605a      	str	r2, [r3, #4]
 8057364:	68fb      	ldr	r3, [r7, #12]
 8057366:	685a      	ldr	r2, [r3, #4]
 8057368:	697b      	ldr	r3, [r7, #20]
 805736a:	f503 7325 	add.w	r3, r3, #660	; 0x294
 805736e:	429a      	cmp	r2, r3
 8057370:	d104      	bne.n	805737c <vTaskRemoveFromUnorderedEventList+0xac>
 8057372:	697b      	ldr	r3, [r7, #20]
 8057374:	f8d3 229c 	ldr.w	r2, [r3, #668]	; 0x29c
 8057378:	68fb      	ldr	r3, [r7, #12]
 805737a:	605a      	str	r2, [r3, #4]
 805737c:	697b      	ldr	r3, [r7, #20]
 805737e:	2200      	movs	r2, #0
 8057380:	f8c3 22a4 	str.w	r2, [r3, #676]	; 0x2a4
 8057384:	68fb      	ldr	r3, [r7, #12]
 8057386:	681b      	ldr	r3, [r3, #0]
 8057388:	1e5a      	subs	r2, r3, #1
 805738a:	68fb      	ldr	r3, [r7, #12]
 805738c:	601a      	str	r2, [r3, #0]
 805738e:	697b      	ldr	r3, [r7, #20]
 8057390:	f8d3 22bc 	ldr.w	r2, [r3, #700]	; 0x2bc
 8057394:	4b2d      	ldr	r3, [pc, #180]	; (805744c <vTaskRemoveFromUnorderedEventList+0x17c>)
 8057396:	681b      	ldr	r3, [r3, #0]
 8057398:	429a      	cmp	r2, r3
 805739a:	d904      	bls.n	80573a6 <vTaskRemoveFromUnorderedEventList+0xd6>
 805739c:	697b      	ldr	r3, [r7, #20]
 805739e:	f8d3 32bc 	ldr.w	r3, [r3, #700]	; 0x2bc
 80573a2:	4a2a      	ldr	r2, [pc, #168]	; (805744c <vTaskRemoveFromUnorderedEventList+0x17c>)
 80573a4:	6013      	str	r3, [r2, #0]
 80573a6:	697b      	ldr	r3, [r7, #20]
 80573a8:	f8d3 22bc 	ldr.w	r2, [r3, #700]	; 0x2bc
 80573ac:	4928      	ldr	r1, [pc, #160]	; (8057450 <vTaskRemoveFromUnorderedEventList+0x180>)
 80573ae:	4613      	mov	r3, r2
 80573b0:	009b      	lsls	r3, r3, #2
 80573b2:	4413      	add	r3, r2
 80573b4:	009b      	lsls	r3, r3, #2
 80573b6:	440b      	add	r3, r1
 80573b8:	3304      	adds	r3, #4
 80573ba:	681b      	ldr	r3, [r3, #0]
 80573bc:	60bb      	str	r3, [r7, #8]
 80573be:	697b      	ldr	r3, [r7, #20]
 80573c0:	68ba      	ldr	r2, [r7, #8]
 80573c2:	f8c3 2298 	str.w	r2, [r3, #664]	; 0x298
 80573c6:	68bb      	ldr	r3, [r7, #8]
 80573c8:	689a      	ldr	r2, [r3, #8]
 80573ca:	697b      	ldr	r3, [r7, #20]
 80573cc:	f8c3 229c 	str.w	r2, [r3, #668]	; 0x29c
 80573d0:	68bb      	ldr	r3, [r7, #8]
 80573d2:	689b      	ldr	r3, [r3, #8]
 80573d4:	697a      	ldr	r2, [r7, #20]
 80573d6:	f502 7225 	add.w	r2, r2, #660	; 0x294
 80573da:	605a      	str	r2, [r3, #4]
 80573dc:	697b      	ldr	r3, [r7, #20]
 80573de:	f503 7225 	add.w	r2, r3, #660	; 0x294
 80573e2:	68bb      	ldr	r3, [r7, #8]
 80573e4:	609a      	str	r2, [r3, #8]
 80573e6:	697b      	ldr	r3, [r7, #20]
 80573e8:	f8d3 22bc 	ldr.w	r2, [r3, #700]	; 0x2bc
 80573ec:	4613      	mov	r3, r2
 80573ee:	009b      	lsls	r3, r3, #2
 80573f0:	4413      	add	r3, r2
 80573f2:	009b      	lsls	r3, r3, #2
 80573f4:	4a16      	ldr	r2, [pc, #88]	; (8057450 <vTaskRemoveFromUnorderedEventList+0x180>)
 80573f6:	441a      	add	r2, r3
 80573f8:	697b      	ldr	r3, [r7, #20]
 80573fa:	f8c3 22a4 	str.w	r2, [r3, #676]	; 0x2a4
 80573fe:	697b      	ldr	r3, [r7, #20]
 8057400:	f8d3 22bc 	ldr.w	r2, [r3, #700]	; 0x2bc
 8057404:	4912      	ldr	r1, [pc, #72]	; (8057450 <vTaskRemoveFromUnorderedEventList+0x180>)
 8057406:	4613      	mov	r3, r2
 8057408:	009b      	lsls	r3, r3, #2
 805740a:	4413      	add	r3, r2
 805740c:	009b      	lsls	r3, r3, #2
 805740e:	440b      	add	r3, r1
 8057410:	681b      	ldr	r3, [r3, #0]
 8057412:	1c59      	adds	r1, r3, #1
 8057414:	480e      	ldr	r0, [pc, #56]	; (8057450 <vTaskRemoveFromUnorderedEventList+0x180>)
 8057416:	4613      	mov	r3, r2
 8057418:	009b      	lsls	r3, r3, #2
 805741a:	4413      	add	r3, r2
 805741c:	009b      	lsls	r3, r3, #2
 805741e:	4403      	add	r3, r0
 8057420:	6019      	str	r1, [r3, #0]
 8057422:	697b      	ldr	r3, [r7, #20]
 8057424:	f8d3 22bc 	ldr.w	r2, [r3, #700]	; 0x2bc
 8057428:	4b0a      	ldr	r3, [pc, #40]	; (8057454 <vTaskRemoveFromUnorderedEventList+0x184>)
 805742a:	681b      	ldr	r3, [r3, #0]
 805742c:	f8d3 32bc 	ldr.w	r3, [r3, #700]	; 0x2bc
 8057430:	429a      	cmp	r2, r3
 8057432:	d902      	bls.n	805743a <vTaskRemoveFromUnorderedEventList+0x16a>
 8057434:	4b08      	ldr	r3, [pc, #32]	; (8057458 <vTaskRemoveFromUnorderedEventList+0x188>)
 8057436:	2201      	movs	r2, #1
 8057438:	601a      	str	r2, [r3, #0]
 805743a:	bf00      	nop
 805743c:	3718      	adds	r7, #24
 805743e:	46bd      	mov	sp, r7
 8057440:	bd80      	pop	{r7, pc}
 8057442:	bf00      	nop
 8057444:	200002dc 	.word	0x200002dc
 8057448:	0805f1c7 	.word	0x0805f1c7
 805744c:	200002bc 	.word	0x200002bc
 8057450:	20000104 	.word	0x20000104
 8057454:	20000100 	.word	0x20000100
 8057458:	200002c8 	.word	0x200002c8

0805745c <vTaskSwitchContext>:
 805745c:	b580      	push	{r7, lr}
 805745e:	b082      	sub	sp, #8
 8057460:	af00      	add	r7, sp, #0
 8057462:	4b22      	ldr	r3, [pc, #136]	; (80574ec <vTaskSwitchContext+0x90>)
 8057464:	681b      	ldr	r3, [r3, #0]
 8057466:	2b00      	cmp	r3, #0
 8057468:	d003      	beq.n	8057472 <vTaskSwitchContext+0x16>
 805746a:	4b21      	ldr	r3, [pc, #132]	; (80574f0 <vTaskSwitchContext+0x94>)
 805746c:	2201      	movs	r2, #1
 805746e:	601a      	str	r2, [r3, #0]
 8057470:	e038      	b.n	80574e4 <vTaskSwitchContext+0x88>
 8057472:	4b1f      	ldr	r3, [pc, #124]	; (80574f0 <vTaskSwitchContext+0x94>)
 8057474:	2200      	movs	r2, #0
 8057476:	601a      	str	r2, [r3, #0]
 8057478:	4b1e      	ldr	r3, [pc, #120]	; (80574f4 <vTaskSwitchContext+0x98>)
 805747a:	681b      	ldr	r3, [r3, #0]
 805747c:	607b      	str	r3, [r7, #4]
 805747e:	e008      	b.n	8057492 <vTaskSwitchContext+0x36>
 8057480:	687b      	ldr	r3, [r7, #4]
 8057482:	2b00      	cmp	r3, #0
 8057484:	d102      	bne.n	805748c <vTaskSwitchContext+0x30>
 8057486:	4b1c      	ldr	r3, [pc, #112]	; (80574f8 <vTaskSwitchContext+0x9c>)
 8057488:	4798      	blx	r3
 805748a:	e7fe      	b.n	805748a <vTaskSwitchContext+0x2e>
 805748c:	687b      	ldr	r3, [r7, #4]
 805748e:	3b01      	subs	r3, #1
 8057490:	607b      	str	r3, [r7, #4]
 8057492:	491a      	ldr	r1, [pc, #104]	; (80574fc <vTaskSwitchContext+0xa0>)
 8057494:	687a      	ldr	r2, [r7, #4]
 8057496:	4613      	mov	r3, r2
 8057498:	009b      	lsls	r3, r3, #2
 805749a:	4413      	add	r3, r2
 805749c:	009b      	lsls	r3, r3, #2
 805749e:	440b      	add	r3, r1
 80574a0:	681b      	ldr	r3, [r3, #0]
 80574a2:	2b00      	cmp	r3, #0
 80574a4:	d0ec      	beq.n	8057480 <vTaskSwitchContext+0x24>
 80574a6:	687a      	ldr	r2, [r7, #4]
 80574a8:	4613      	mov	r3, r2
 80574aa:	009b      	lsls	r3, r3, #2
 80574ac:	4413      	add	r3, r2
 80574ae:	009b      	lsls	r3, r3, #2
 80574b0:	4a12      	ldr	r2, [pc, #72]	; (80574fc <vTaskSwitchContext+0xa0>)
 80574b2:	4413      	add	r3, r2
 80574b4:	603b      	str	r3, [r7, #0]
 80574b6:	683b      	ldr	r3, [r7, #0]
 80574b8:	685b      	ldr	r3, [r3, #4]
 80574ba:	685a      	ldr	r2, [r3, #4]
 80574bc:	683b      	ldr	r3, [r7, #0]
 80574be:	605a      	str	r2, [r3, #4]
 80574c0:	683b      	ldr	r3, [r7, #0]
 80574c2:	685a      	ldr	r2, [r3, #4]
 80574c4:	683b      	ldr	r3, [r7, #0]
 80574c6:	3308      	adds	r3, #8
 80574c8:	429a      	cmp	r2, r3
 80574ca:	d103      	bne.n	80574d4 <vTaskSwitchContext+0x78>
 80574cc:	683b      	ldr	r3, [r7, #0]
 80574ce:	68da      	ldr	r2, [r3, #12]
 80574d0:	683b      	ldr	r3, [r7, #0]
 80574d2:	605a      	str	r2, [r3, #4]
 80574d4:	683b      	ldr	r3, [r7, #0]
 80574d6:	685b      	ldr	r3, [r3, #4]
 80574d8:	68db      	ldr	r3, [r3, #12]
 80574da:	4a09      	ldr	r2, [pc, #36]	; (8057500 <vTaskSwitchContext+0xa4>)
 80574dc:	6013      	str	r3, [r2, #0]
 80574de:	4a05      	ldr	r2, [pc, #20]	; (80574f4 <vTaskSwitchContext+0x98>)
 80574e0:	687b      	ldr	r3, [r7, #4]
 80574e2:	6013      	str	r3, [r2, #0]
 80574e4:	bf00      	nop
 80574e6:	3708      	adds	r7, #8
 80574e8:	46bd      	mov	sp, r7
 80574ea:	bd80      	pop	{r7, pc}
 80574ec:	200002dc 	.word	0x200002dc
 80574f0:	200002c8 	.word	0x200002c8
 80574f4:	200002bc 	.word	0x200002bc
 80574f8:	0805f1c7 	.word	0x0805f1c7
 80574fc:	20000104 	.word	0x20000104
 8057500:	20000100 	.word	0x20000100

08057504 <uxTaskResetEventItemValue>:
 8057504:	b480      	push	{r7}
 8057506:	b083      	sub	sp, #12
 8057508:	af00      	add	r7, sp, #0
 805750a:	4b0a      	ldr	r3, [pc, #40]	; (8057534 <uxTaskResetEventItemValue+0x30>)
 805750c:	681b      	ldr	r3, [r3, #0]
 805750e:	f8d3 32a8 	ldr.w	r3, [r3, #680]	; 0x2a8
 8057512:	607b      	str	r3, [r7, #4]
 8057514:	4b07      	ldr	r3, [pc, #28]	; (8057534 <uxTaskResetEventItemValue+0x30>)
 8057516:	681b      	ldr	r3, [r3, #0]
 8057518:	f8d3 22bc 	ldr.w	r2, [r3, #700]	; 0x2bc
 805751c:	4b05      	ldr	r3, [pc, #20]	; (8057534 <uxTaskResetEventItemValue+0x30>)
 805751e:	681b      	ldr	r3, [r3, #0]
 8057520:	f1c2 0210 	rsb	r2, r2, #16
 8057524:	f8c3 22a8 	str.w	r2, [r3, #680]	; 0x2a8
 8057528:	687b      	ldr	r3, [r7, #4]
 805752a:	4618      	mov	r0, r3
 805752c:	370c      	adds	r7, #12
 805752e:	46bd      	mov	sp, r7
 8057530:	bc80      	pop	{r7}
 8057532:	4770      	bx	lr
 8057534:	20000100 	.word	0x20000100

08057538 <xTaskGetCurrentTaskHandle>:
 8057538:	b480      	push	{r7}
 805753a:	b083      	sub	sp, #12
 805753c:	af00      	add	r7, sp, #0
 805753e:	4b04      	ldr	r3, [pc, #16]	; (8057550 <xTaskGetCurrentTaskHandle+0x18>)
 8057540:	681b      	ldr	r3, [r3, #0]
 8057542:	607b      	str	r3, [r7, #4]
 8057544:	687b      	ldr	r3, [r7, #4]
 8057546:	4618      	mov	r0, r3
 8057548:	370c      	adds	r7, #12
 805754a:	46bd      	mov	sp, r7
 805754c:	bc80      	pop	{r7}
 805754e:	4770      	bx	lr
 8057550:	20000100 	.word	0x20000100

08057554 <vTaskMissedYield>:
 8057554:	b480      	push	{r7}
 8057556:	af00      	add	r7, sp, #0
 8057558:	4b03      	ldr	r3, [pc, #12]	; (8057568 <vTaskMissedYield+0x14>)
 805755a:	2201      	movs	r2, #1
 805755c:	601a      	str	r2, [r3, #0]
 805755e:	bf00      	nop
 8057560:	46bd      	mov	sp, r7
 8057562:	bc80      	pop	{r7}
 8057564:	4770      	bx	lr
 8057566:	bf00      	nop
 8057568:	200002c8 	.word	0x200002c8

0805756c <xTaskGetSchedulerState>:
 805756c:	b480      	push	{r7}
 805756e:	b083      	sub	sp, #12
 8057570:	af00      	add	r7, sp, #0
 8057572:	4b0b      	ldr	r3, [pc, #44]	; (80575a0 <xTaskGetSchedulerState+0x34>)
 8057574:	681b      	ldr	r3, [r3, #0]
 8057576:	2b00      	cmp	r3, #0
 8057578:	d102      	bne.n	8057580 <xTaskGetSchedulerState+0x14>
 805757a:	2301      	movs	r3, #1
 805757c:	607b      	str	r3, [r7, #4]
 805757e:	e008      	b.n	8057592 <xTaskGetSchedulerState+0x26>
 8057580:	4b08      	ldr	r3, [pc, #32]	; (80575a4 <xTaskGetSchedulerState+0x38>)
 8057582:	681b      	ldr	r3, [r3, #0]
 8057584:	2b00      	cmp	r3, #0
 8057586:	d102      	bne.n	805758e <xTaskGetSchedulerState+0x22>
 8057588:	2302      	movs	r3, #2
 805758a:	607b      	str	r3, [r7, #4]
 805758c:	e001      	b.n	8057592 <xTaskGetSchedulerState+0x26>
 805758e:	2300      	movs	r3, #0
 8057590:	607b      	str	r3, [r7, #4]
 8057592:	687b      	ldr	r3, [r7, #4]
 8057594:	4618      	mov	r0, r3
 8057596:	370c      	adds	r7, #12
 8057598:	46bd      	mov	sp, r7
 805759a:	bc80      	pop	{r7}
 805759c:	4770      	bx	lr
 805759e:	bf00      	nop
 80575a0:	200002c0 	.word	0x200002c0
 80575a4:	200002dc 	.word	0x200002dc

080575a8 <xTaskPriorityInherit>:
 80575a8:	b580      	push	{r7, lr}
 80575aa:	b086      	sub	sp, #24
 80575ac:	af00      	add	r7, sp, #0
 80575ae:	6078      	str	r0, [r7, #4]
 80575b0:	687b      	ldr	r3, [r7, #4]
 80575b2:	613b      	str	r3, [r7, #16]
 80575b4:	2300      	movs	r3, #0
 80575b6:	617b      	str	r3, [r7, #20]
 80575b8:	687b      	ldr	r3, [r7, #4]
 80575ba:	2b00      	cmp	r3, #0
 80575bc:	f000 8092 	beq.w	80576e4 <xTaskPriorityInherit+0x13c>
 80575c0:	693b      	ldr	r3, [r7, #16]
 80575c2:	f8d3 22bc 	ldr.w	r2, [r3, #700]	; 0x2bc
 80575c6:	4b4a      	ldr	r3, [pc, #296]	; (80576f0 <xTaskPriorityInherit+0x148>)
 80575c8:	681b      	ldr	r3, [r3, #0]
 80575ca:	f8d3 32bc 	ldr.w	r3, [r3, #700]	; 0x2bc
 80575ce:	429a      	cmp	r2, r3
 80575d0:	d27d      	bcs.n	80576ce <xTaskPriorityInherit+0x126>
 80575d2:	693b      	ldr	r3, [r7, #16]
 80575d4:	f8d3 32a8 	ldr.w	r3, [r3, #680]	; 0x2a8
 80575d8:	2b00      	cmp	r3, #0
 80575da:	db08      	blt.n	80575ee <xTaskPriorityInherit+0x46>
 80575dc:	4b44      	ldr	r3, [pc, #272]	; (80576f0 <xTaskPriorityInherit+0x148>)
 80575de:	681b      	ldr	r3, [r3, #0]
 80575e0:	f8d3 32bc 	ldr.w	r3, [r3, #700]	; 0x2bc
 80575e4:	f1c3 0210 	rsb	r2, r3, #16
 80575e8:	693b      	ldr	r3, [r7, #16]
 80575ea:	f8c3 22a8 	str.w	r2, [r3, #680]	; 0x2a8
 80575ee:	693b      	ldr	r3, [r7, #16]
 80575f0:	f8d3 12a4 	ldr.w	r1, [r3, #676]	; 0x2a4
 80575f4:	693b      	ldr	r3, [r7, #16]
 80575f6:	f8d3 22bc 	ldr.w	r2, [r3, #700]	; 0x2bc
 80575fa:	4613      	mov	r3, r2
 80575fc:	009b      	lsls	r3, r3, #2
 80575fe:	4413      	add	r3, r2
 8057600:	009b      	lsls	r3, r3, #2
 8057602:	4a3c      	ldr	r2, [pc, #240]	; (80576f4 <xTaskPriorityInherit+0x14c>)
 8057604:	4413      	add	r3, r2
 8057606:	4299      	cmp	r1, r3
 8057608:	d157      	bne.n	80576ba <xTaskPriorityInherit+0x112>
 805760a:	693b      	ldr	r3, [r7, #16]
 805760c:	f503 7325 	add.w	r3, r3, #660	; 0x294
 8057610:	4618      	mov	r0, r3
 8057612:	4b39      	ldr	r3, [pc, #228]	; (80576f8 <xTaskPriorityInherit+0x150>)
 8057614:	4798      	blx	r3
 8057616:	4b36      	ldr	r3, [pc, #216]	; (80576f0 <xTaskPriorityInherit+0x148>)
 8057618:	681b      	ldr	r3, [r3, #0]
 805761a:	f8d3 22bc 	ldr.w	r2, [r3, #700]	; 0x2bc
 805761e:	693b      	ldr	r3, [r7, #16]
 8057620:	f8c3 22bc 	str.w	r2, [r3, #700]	; 0x2bc
 8057624:	693b      	ldr	r3, [r7, #16]
 8057626:	f8d3 22bc 	ldr.w	r2, [r3, #700]	; 0x2bc
 805762a:	4b34      	ldr	r3, [pc, #208]	; (80576fc <xTaskPriorityInherit+0x154>)
 805762c:	681b      	ldr	r3, [r3, #0]
 805762e:	429a      	cmp	r2, r3
 8057630:	d904      	bls.n	805763c <xTaskPriorityInherit+0x94>
 8057632:	693b      	ldr	r3, [r7, #16]
 8057634:	f8d3 32bc 	ldr.w	r3, [r3, #700]	; 0x2bc
 8057638:	4a30      	ldr	r2, [pc, #192]	; (80576fc <xTaskPriorityInherit+0x154>)
 805763a:	6013      	str	r3, [r2, #0]
 805763c:	693b      	ldr	r3, [r7, #16]
 805763e:	f8d3 22bc 	ldr.w	r2, [r3, #700]	; 0x2bc
 8057642:	492c      	ldr	r1, [pc, #176]	; (80576f4 <xTaskPriorityInherit+0x14c>)
 8057644:	4613      	mov	r3, r2
 8057646:	009b      	lsls	r3, r3, #2
 8057648:	4413      	add	r3, r2
 805764a:	009b      	lsls	r3, r3, #2
 805764c:	440b      	add	r3, r1
 805764e:	3304      	adds	r3, #4
 8057650:	681b      	ldr	r3, [r3, #0]
 8057652:	60fb      	str	r3, [r7, #12]
 8057654:	693b      	ldr	r3, [r7, #16]
 8057656:	68fa      	ldr	r2, [r7, #12]
 8057658:	f8c3 2298 	str.w	r2, [r3, #664]	; 0x298
 805765c:	68fb      	ldr	r3, [r7, #12]
 805765e:	689a      	ldr	r2, [r3, #8]
 8057660:	693b      	ldr	r3, [r7, #16]
 8057662:	f8c3 229c 	str.w	r2, [r3, #668]	; 0x29c
 8057666:	68fb      	ldr	r3, [r7, #12]
 8057668:	689b      	ldr	r3, [r3, #8]
 805766a:	693a      	ldr	r2, [r7, #16]
 805766c:	f502 7225 	add.w	r2, r2, #660	; 0x294
 8057670:	605a      	str	r2, [r3, #4]
 8057672:	693b      	ldr	r3, [r7, #16]
 8057674:	f503 7225 	add.w	r2, r3, #660	; 0x294
 8057678:	68fb      	ldr	r3, [r7, #12]
 805767a:	609a      	str	r2, [r3, #8]
 805767c:	693b      	ldr	r3, [r7, #16]
 805767e:	f8d3 22bc 	ldr.w	r2, [r3, #700]	; 0x2bc
 8057682:	4613      	mov	r3, r2
 8057684:	009b      	lsls	r3, r3, #2
 8057686:	4413      	add	r3, r2
 8057688:	009b      	lsls	r3, r3, #2
 805768a:	4a1a      	ldr	r2, [pc, #104]	; (80576f4 <xTaskPriorityInherit+0x14c>)
 805768c:	441a      	add	r2, r3
 805768e:	693b      	ldr	r3, [r7, #16]
 8057690:	f8c3 22a4 	str.w	r2, [r3, #676]	; 0x2a4
 8057694:	693b      	ldr	r3, [r7, #16]
 8057696:	f8d3 22bc 	ldr.w	r2, [r3, #700]	; 0x2bc
 805769a:	4916      	ldr	r1, [pc, #88]	; (80576f4 <xTaskPriorityInherit+0x14c>)
 805769c:	4613      	mov	r3, r2
 805769e:	009b      	lsls	r3, r3, #2
 80576a0:	4413      	add	r3, r2
 80576a2:	009b      	lsls	r3, r3, #2
 80576a4:	440b      	add	r3, r1
 80576a6:	681b      	ldr	r3, [r3, #0]
 80576a8:	1c59      	adds	r1, r3, #1
 80576aa:	4812      	ldr	r0, [pc, #72]	; (80576f4 <xTaskPriorityInherit+0x14c>)
 80576ac:	4613      	mov	r3, r2
 80576ae:	009b      	lsls	r3, r3, #2
 80576b0:	4413      	add	r3, r2
 80576b2:	009b      	lsls	r3, r3, #2
 80576b4:	4403      	add	r3, r0
 80576b6:	6019      	str	r1, [r3, #0]
 80576b8:	e006      	b.n	80576c8 <xTaskPriorityInherit+0x120>
 80576ba:	4b0d      	ldr	r3, [pc, #52]	; (80576f0 <xTaskPriorityInherit+0x148>)
 80576bc:	681b      	ldr	r3, [r3, #0]
 80576be:	f8d3 22bc 	ldr.w	r2, [r3, #700]	; 0x2bc
 80576c2:	693b      	ldr	r3, [r7, #16]
 80576c4:	f8c3 22bc 	str.w	r2, [r3, #700]	; 0x2bc
 80576c8:	2301      	movs	r3, #1
 80576ca:	617b      	str	r3, [r7, #20]
 80576cc:	e00a      	b.n	80576e4 <xTaskPriorityInherit+0x13c>
 80576ce:	693b      	ldr	r3, [r7, #16]
 80576d0:	f8d3 22dc 	ldr.w	r2, [r3, #732]	; 0x2dc
 80576d4:	4b06      	ldr	r3, [pc, #24]	; (80576f0 <xTaskPriorityInherit+0x148>)
 80576d6:	681b      	ldr	r3, [r3, #0]
 80576d8:	f8d3 32bc 	ldr.w	r3, [r3, #700]	; 0x2bc
 80576dc:	429a      	cmp	r2, r3
 80576de:	d201      	bcs.n	80576e4 <xTaskPriorityInherit+0x13c>
 80576e0:	2301      	movs	r3, #1
 80576e2:	617b      	str	r3, [r7, #20]
 80576e4:	697b      	ldr	r3, [r7, #20]
 80576e6:	4618      	mov	r0, r3
 80576e8:	3718      	adds	r7, #24
 80576ea:	46bd      	mov	sp, r7
 80576ec:	bd80      	pop	{r7, pc}
 80576ee:	bf00      	nop
 80576f0:	20000100 	.word	0x20000100
 80576f4:	20000104 	.word	0x20000104
 80576f8:	0805c449 	.word	0x0805c449
 80576fc:	200002bc 	.word	0x200002bc

08057700 <xTaskPriorityDisinherit>:
 8057700:	b580      	push	{r7, lr}
 8057702:	b086      	sub	sp, #24
 8057704:	af00      	add	r7, sp, #0
 8057706:	6078      	str	r0, [r7, #4]
 8057708:	687b      	ldr	r3, [r7, #4]
 805770a:	613b      	str	r3, [r7, #16]
 805770c:	2300      	movs	r3, #0
 805770e:	617b      	str	r3, [r7, #20]
 8057710:	687b      	ldr	r3, [r7, #4]
 8057712:	2b00      	cmp	r3, #0
 8057714:	f000 8084 	beq.w	8057820 <xTaskPriorityDisinherit+0x120>
 8057718:	4b44      	ldr	r3, [pc, #272]	; (805782c <xTaskPriorityDisinherit+0x12c>)
 805771a:	681b      	ldr	r3, [r3, #0]
 805771c:	693a      	ldr	r2, [r7, #16]
 805771e:	429a      	cmp	r2, r3
 8057720:	d002      	beq.n	8057728 <xTaskPriorityDisinherit+0x28>
 8057722:	4b43      	ldr	r3, [pc, #268]	; (8057830 <xTaskPriorityDisinherit+0x130>)
 8057724:	4798      	blx	r3
 8057726:	e7fe      	b.n	8057726 <xTaskPriorityDisinherit+0x26>
 8057728:	693b      	ldr	r3, [r7, #16]
 805772a:	f8d3 32e0 	ldr.w	r3, [r3, #736]	; 0x2e0
 805772e:	2b00      	cmp	r3, #0
 8057730:	d102      	bne.n	8057738 <xTaskPriorityDisinherit+0x38>
 8057732:	4b3f      	ldr	r3, [pc, #252]	; (8057830 <xTaskPriorityDisinherit+0x130>)
 8057734:	4798      	blx	r3
 8057736:	e7fe      	b.n	8057736 <xTaskPriorityDisinherit+0x36>
 8057738:	693b      	ldr	r3, [r7, #16]
 805773a:	f8d3 32e0 	ldr.w	r3, [r3, #736]	; 0x2e0
 805773e:	1e5a      	subs	r2, r3, #1
 8057740:	693b      	ldr	r3, [r7, #16]
 8057742:	f8c3 22e0 	str.w	r2, [r3, #736]	; 0x2e0
 8057746:	693b      	ldr	r3, [r7, #16]
 8057748:	f8d3 22bc 	ldr.w	r2, [r3, #700]	; 0x2bc
 805774c:	693b      	ldr	r3, [r7, #16]
 805774e:	f8d3 32dc 	ldr.w	r3, [r3, #732]	; 0x2dc
 8057752:	429a      	cmp	r2, r3
 8057754:	d064      	beq.n	8057820 <xTaskPriorityDisinherit+0x120>
 8057756:	693b      	ldr	r3, [r7, #16]
 8057758:	f8d3 32e0 	ldr.w	r3, [r3, #736]	; 0x2e0
 805775c:	2b00      	cmp	r3, #0
 805775e:	d15f      	bne.n	8057820 <xTaskPriorityDisinherit+0x120>
 8057760:	693b      	ldr	r3, [r7, #16]
 8057762:	f503 7325 	add.w	r3, r3, #660	; 0x294
 8057766:	4618      	mov	r0, r3
 8057768:	4b32      	ldr	r3, [pc, #200]	; (8057834 <xTaskPriorityDisinherit+0x134>)
 805776a:	4798      	blx	r3
 805776c:	693b      	ldr	r3, [r7, #16]
 805776e:	f8d3 22dc 	ldr.w	r2, [r3, #732]	; 0x2dc
 8057772:	693b      	ldr	r3, [r7, #16]
 8057774:	f8c3 22bc 	str.w	r2, [r3, #700]	; 0x2bc
 8057778:	693b      	ldr	r3, [r7, #16]
 805777a:	f8d3 32bc 	ldr.w	r3, [r3, #700]	; 0x2bc
 805777e:	f1c3 0210 	rsb	r2, r3, #16
 8057782:	693b      	ldr	r3, [r7, #16]
 8057784:	f8c3 22a8 	str.w	r2, [r3, #680]	; 0x2a8
 8057788:	693b      	ldr	r3, [r7, #16]
 805778a:	f8d3 22bc 	ldr.w	r2, [r3, #700]	; 0x2bc
 805778e:	4b2a      	ldr	r3, [pc, #168]	; (8057838 <xTaskPriorityDisinherit+0x138>)
 8057790:	681b      	ldr	r3, [r3, #0]
 8057792:	429a      	cmp	r2, r3
 8057794:	d904      	bls.n	80577a0 <xTaskPriorityDisinherit+0xa0>
 8057796:	693b      	ldr	r3, [r7, #16]
 8057798:	f8d3 32bc 	ldr.w	r3, [r3, #700]	; 0x2bc
 805779c:	4a26      	ldr	r2, [pc, #152]	; (8057838 <xTaskPriorityDisinherit+0x138>)
 805779e:	6013      	str	r3, [r2, #0]
 80577a0:	693b      	ldr	r3, [r7, #16]
 80577a2:	f8d3 22bc 	ldr.w	r2, [r3, #700]	; 0x2bc
 80577a6:	4925      	ldr	r1, [pc, #148]	; (805783c <xTaskPriorityDisinherit+0x13c>)
 80577a8:	4613      	mov	r3, r2
 80577aa:	009b      	lsls	r3, r3, #2
 80577ac:	4413      	add	r3, r2
 80577ae:	009b      	lsls	r3, r3, #2
 80577b0:	440b      	add	r3, r1
 80577b2:	3304      	adds	r3, #4
 80577b4:	681b      	ldr	r3, [r3, #0]
 80577b6:	60fb      	str	r3, [r7, #12]
 80577b8:	693b      	ldr	r3, [r7, #16]
 80577ba:	68fa      	ldr	r2, [r7, #12]
 80577bc:	f8c3 2298 	str.w	r2, [r3, #664]	; 0x298
 80577c0:	68fb      	ldr	r3, [r7, #12]
 80577c2:	689a      	ldr	r2, [r3, #8]
 80577c4:	693b      	ldr	r3, [r7, #16]
 80577c6:	f8c3 229c 	str.w	r2, [r3, #668]	; 0x29c
 80577ca:	68fb      	ldr	r3, [r7, #12]
 80577cc:	689b      	ldr	r3, [r3, #8]
 80577ce:	693a      	ldr	r2, [r7, #16]
 80577d0:	f502 7225 	add.w	r2, r2, #660	; 0x294
 80577d4:	605a      	str	r2, [r3, #4]
 80577d6:	693b      	ldr	r3, [r7, #16]
 80577d8:	f503 7225 	add.w	r2, r3, #660	; 0x294
 80577dc:	68fb      	ldr	r3, [r7, #12]
 80577de:	609a      	str	r2, [r3, #8]
 80577e0:	693b      	ldr	r3, [r7, #16]
 80577e2:	f8d3 22bc 	ldr.w	r2, [r3, #700]	; 0x2bc
 80577e6:	4613      	mov	r3, r2
 80577e8:	009b      	lsls	r3, r3, #2
 80577ea:	4413      	add	r3, r2
 80577ec:	009b      	lsls	r3, r3, #2
 80577ee:	4a13      	ldr	r2, [pc, #76]	; (805783c <xTaskPriorityDisinherit+0x13c>)
 80577f0:	441a      	add	r2, r3
 80577f2:	693b      	ldr	r3, [r7, #16]
 80577f4:	f8c3 22a4 	str.w	r2, [r3, #676]	; 0x2a4
 80577f8:	693b      	ldr	r3, [r7, #16]
 80577fa:	f8d3 22bc 	ldr.w	r2, [r3, #700]	; 0x2bc
 80577fe:	490f      	ldr	r1, [pc, #60]	; (805783c <xTaskPriorityDisinherit+0x13c>)
 8057800:	4613      	mov	r3, r2
 8057802:	009b      	lsls	r3, r3, #2
 8057804:	4413      	add	r3, r2
 8057806:	009b      	lsls	r3, r3, #2
 8057808:	440b      	add	r3, r1
 805780a:	681b      	ldr	r3, [r3, #0]
 805780c:	1c59      	adds	r1, r3, #1
 805780e:	480b      	ldr	r0, [pc, #44]	; (805783c <xTaskPriorityDisinherit+0x13c>)
 8057810:	4613      	mov	r3, r2
 8057812:	009b      	lsls	r3, r3, #2
 8057814:	4413      	add	r3, r2
 8057816:	009b      	lsls	r3, r3, #2
 8057818:	4403      	add	r3, r0
 805781a:	6019      	str	r1, [r3, #0]
 805781c:	2301      	movs	r3, #1
 805781e:	617b      	str	r3, [r7, #20]
 8057820:	697b      	ldr	r3, [r7, #20]
 8057822:	4618      	mov	r0, r3
 8057824:	3718      	adds	r7, #24
 8057826:	46bd      	mov	sp, r7
 8057828:	bd80      	pop	{r7, pc}
 805782a:	bf00      	nop
 805782c:	20000100 	.word	0x20000100
 8057830:	0805f1c7 	.word	0x0805f1c7
 8057834:	0805c449 	.word	0x0805c449
 8057838:	200002bc 	.word	0x200002bc
 805783c:	20000104 	.word	0x20000104

08057840 <vTaskPriorityDisinheritAfterTimeout>:
 8057840:	b580      	push	{r7, lr}
 8057842:	b088      	sub	sp, #32
 8057844:	af00      	add	r7, sp, #0
 8057846:	6078      	str	r0, [r7, #4]
 8057848:	6039      	str	r1, [r7, #0]
 805784a:	687b      	ldr	r3, [r7, #4]
 805784c:	61bb      	str	r3, [r7, #24]
 805784e:	2301      	movs	r3, #1
 8057850:	617b      	str	r3, [r7, #20]
 8057852:	687b      	ldr	r3, [r7, #4]
 8057854:	2b00      	cmp	r3, #0
 8057856:	f000 8098 	beq.w	805798a <vTaskPriorityDisinheritAfterTimeout+0x14a>
 805785a:	69bb      	ldr	r3, [r7, #24]
 805785c:	f8d3 32e0 	ldr.w	r3, [r3, #736]	; 0x2e0
 8057860:	2b00      	cmp	r3, #0
 8057862:	d102      	bne.n	805786a <vTaskPriorityDisinheritAfterTimeout+0x2a>
 8057864:	4b4b      	ldr	r3, [pc, #300]	; (8057994 <vTaskPriorityDisinheritAfterTimeout+0x154>)
 8057866:	4798      	blx	r3
 8057868:	e7fe      	b.n	8057868 <vTaskPriorityDisinheritAfterTimeout+0x28>
 805786a:	69bb      	ldr	r3, [r7, #24]
 805786c:	f8d3 32dc 	ldr.w	r3, [r3, #732]	; 0x2dc
 8057870:	683a      	ldr	r2, [r7, #0]
 8057872:	429a      	cmp	r2, r3
 8057874:	d902      	bls.n	805787c <vTaskPriorityDisinheritAfterTimeout+0x3c>
 8057876:	683b      	ldr	r3, [r7, #0]
 8057878:	61fb      	str	r3, [r7, #28]
 805787a:	e003      	b.n	8057884 <vTaskPriorityDisinheritAfterTimeout+0x44>
 805787c:	69bb      	ldr	r3, [r7, #24]
 805787e:	f8d3 32dc 	ldr.w	r3, [r3, #732]	; 0x2dc
 8057882:	61fb      	str	r3, [r7, #28]
 8057884:	69bb      	ldr	r3, [r7, #24]
 8057886:	f8d3 32bc 	ldr.w	r3, [r3, #700]	; 0x2bc
 805788a:	69fa      	ldr	r2, [r7, #28]
 805788c:	429a      	cmp	r2, r3
 805788e:	d07c      	beq.n	805798a <vTaskPriorityDisinheritAfterTimeout+0x14a>
 8057890:	69bb      	ldr	r3, [r7, #24]
 8057892:	f8d3 32e0 	ldr.w	r3, [r3, #736]	; 0x2e0
 8057896:	697a      	ldr	r2, [r7, #20]
 8057898:	429a      	cmp	r2, r3
 805789a:	d176      	bne.n	805798a <vTaskPriorityDisinheritAfterTimeout+0x14a>
 805789c:	4b3e      	ldr	r3, [pc, #248]	; (8057998 <vTaskPriorityDisinheritAfterTimeout+0x158>)
 805789e:	681b      	ldr	r3, [r3, #0]
 80578a0:	69ba      	ldr	r2, [r7, #24]
 80578a2:	429a      	cmp	r2, r3
 80578a4:	d102      	bne.n	80578ac <vTaskPriorityDisinheritAfterTimeout+0x6c>
 80578a6:	4b3b      	ldr	r3, [pc, #236]	; (8057994 <vTaskPriorityDisinheritAfterTimeout+0x154>)
 80578a8:	4798      	blx	r3
 80578aa:	e7fe      	b.n	80578aa <vTaskPriorityDisinheritAfterTimeout+0x6a>
 80578ac:	69bb      	ldr	r3, [r7, #24]
 80578ae:	f8d3 32bc 	ldr.w	r3, [r3, #700]	; 0x2bc
 80578b2:	613b      	str	r3, [r7, #16]
 80578b4:	69bb      	ldr	r3, [r7, #24]
 80578b6:	69fa      	ldr	r2, [r7, #28]
 80578b8:	f8c3 22bc 	str.w	r2, [r3, #700]	; 0x2bc
 80578bc:	69bb      	ldr	r3, [r7, #24]
 80578be:	f8d3 32a8 	ldr.w	r3, [r3, #680]	; 0x2a8
 80578c2:	2b00      	cmp	r3, #0
 80578c4:	db05      	blt.n	80578d2 <vTaskPriorityDisinheritAfterTimeout+0x92>
 80578c6:	69fb      	ldr	r3, [r7, #28]
 80578c8:	f1c3 0210 	rsb	r2, r3, #16
 80578cc:	69bb      	ldr	r3, [r7, #24]
 80578ce:	f8c3 22a8 	str.w	r2, [r3, #680]	; 0x2a8
 80578d2:	69bb      	ldr	r3, [r7, #24]
 80578d4:	f8d3 12a4 	ldr.w	r1, [r3, #676]	; 0x2a4
 80578d8:	693a      	ldr	r2, [r7, #16]
 80578da:	4613      	mov	r3, r2
 80578dc:	009b      	lsls	r3, r3, #2
 80578de:	4413      	add	r3, r2
 80578e0:	009b      	lsls	r3, r3, #2
 80578e2:	4a2e      	ldr	r2, [pc, #184]	; (805799c <vTaskPriorityDisinheritAfterTimeout+0x15c>)
 80578e4:	4413      	add	r3, r2
 80578e6:	4299      	cmp	r1, r3
 80578e8:	d14f      	bne.n	805798a <vTaskPriorityDisinheritAfterTimeout+0x14a>
 80578ea:	69bb      	ldr	r3, [r7, #24]
 80578ec:	f503 7325 	add.w	r3, r3, #660	; 0x294
 80578f0:	4618      	mov	r0, r3
 80578f2:	4b2b      	ldr	r3, [pc, #172]	; (80579a0 <vTaskPriorityDisinheritAfterTimeout+0x160>)
 80578f4:	4798      	blx	r3
 80578f6:	69bb      	ldr	r3, [r7, #24]
 80578f8:	f8d3 22bc 	ldr.w	r2, [r3, #700]	; 0x2bc
 80578fc:	4b29      	ldr	r3, [pc, #164]	; (80579a4 <vTaskPriorityDisinheritAfterTimeout+0x164>)
 80578fe:	681b      	ldr	r3, [r3, #0]
 8057900:	429a      	cmp	r2, r3
 8057902:	d904      	bls.n	805790e <vTaskPriorityDisinheritAfterTimeout+0xce>
 8057904:	69bb      	ldr	r3, [r7, #24]
 8057906:	f8d3 32bc 	ldr.w	r3, [r3, #700]	; 0x2bc
 805790a:	4a26      	ldr	r2, [pc, #152]	; (80579a4 <vTaskPriorityDisinheritAfterTimeout+0x164>)
 805790c:	6013      	str	r3, [r2, #0]
 805790e:	69bb      	ldr	r3, [r7, #24]
 8057910:	f8d3 22bc 	ldr.w	r2, [r3, #700]	; 0x2bc
 8057914:	4921      	ldr	r1, [pc, #132]	; (805799c <vTaskPriorityDisinheritAfterTimeout+0x15c>)
 8057916:	4613      	mov	r3, r2
 8057918:	009b      	lsls	r3, r3, #2
 805791a:	4413      	add	r3, r2
 805791c:	009b      	lsls	r3, r3, #2
 805791e:	440b      	add	r3, r1
 8057920:	3304      	adds	r3, #4
 8057922:	681b      	ldr	r3, [r3, #0]
 8057924:	60fb      	str	r3, [r7, #12]
 8057926:	69bb      	ldr	r3, [r7, #24]
 8057928:	68fa      	ldr	r2, [r7, #12]
 805792a:	f8c3 2298 	str.w	r2, [r3, #664]	; 0x298
 805792e:	68fb      	ldr	r3, [r7, #12]
 8057930:	689a      	ldr	r2, [r3, #8]
 8057932:	69bb      	ldr	r3, [r7, #24]
 8057934:	f8c3 229c 	str.w	r2, [r3, #668]	; 0x29c
 8057938:	68fb      	ldr	r3, [r7, #12]
 805793a:	689b      	ldr	r3, [r3, #8]
 805793c:	69ba      	ldr	r2, [r7, #24]
 805793e:	f502 7225 	add.w	r2, r2, #660	; 0x294
 8057942:	605a      	str	r2, [r3, #4]
 8057944:	69bb      	ldr	r3, [r7, #24]
 8057946:	f503 7225 	add.w	r2, r3, #660	; 0x294
 805794a:	68fb      	ldr	r3, [r7, #12]
 805794c:	609a      	str	r2, [r3, #8]
 805794e:	69bb      	ldr	r3, [r7, #24]
 8057950:	f8d3 22bc 	ldr.w	r2, [r3, #700]	; 0x2bc
 8057954:	4613      	mov	r3, r2
 8057956:	009b      	lsls	r3, r3, #2
 8057958:	4413      	add	r3, r2
 805795a:	009b      	lsls	r3, r3, #2
 805795c:	4a0f      	ldr	r2, [pc, #60]	; (805799c <vTaskPriorityDisinheritAfterTimeout+0x15c>)
 805795e:	441a      	add	r2, r3
 8057960:	69bb      	ldr	r3, [r7, #24]
 8057962:	f8c3 22a4 	str.w	r2, [r3, #676]	; 0x2a4
 8057966:	69bb      	ldr	r3, [r7, #24]
 8057968:	f8d3 22bc 	ldr.w	r2, [r3, #700]	; 0x2bc
 805796c:	490b      	ldr	r1, [pc, #44]	; (805799c <vTaskPriorityDisinheritAfterTimeout+0x15c>)
 805796e:	4613      	mov	r3, r2
 8057970:	009b      	lsls	r3, r3, #2
 8057972:	4413      	add	r3, r2
 8057974:	009b      	lsls	r3, r3, #2
 8057976:	440b      	add	r3, r1
 8057978:	681b      	ldr	r3, [r3, #0]
 805797a:	1c59      	adds	r1, r3, #1
 805797c:	4807      	ldr	r0, [pc, #28]	; (805799c <vTaskPriorityDisinheritAfterTimeout+0x15c>)
 805797e:	4613      	mov	r3, r2
 8057980:	009b      	lsls	r3, r3, #2
 8057982:	4413      	add	r3, r2
 8057984:	009b      	lsls	r3, r3, #2
 8057986:	4403      	add	r3, r0
 8057988:	6019      	str	r1, [r3, #0]
 805798a:	bf00      	nop
 805798c:	3720      	adds	r7, #32
 805798e:	46bd      	mov	sp, r7
 8057990:	bd80      	pop	{r7, pc}
 8057992:	bf00      	nop
 8057994:	0805f1c7 	.word	0x0805f1c7
 8057998:	20000100 	.word	0x20000100
 805799c:	20000104 	.word	0x20000104
 80579a0:	0805c449 	.word	0x0805c449
 80579a4:	200002bc 	.word	0x200002bc

080579a8 <uxTaskGetTaskNumber>:
 80579a8:	b480      	push	{r7}
 80579aa:	b085      	sub	sp, #20
 80579ac:	af00      	add	r7, sp, #0
 80579ae:	6078      	str	r0, [r7, #4]
 80579b0:	687b      	ldr	r3, [r7, #4]
 80579b2:	2b00      	cmp	r3, #0
 80579b4:	d006      	beq.n	80579c4 <uxTaskGetTaskNumber+0x1c>
 80579b6:	687b      	ldr	r3, [r7, #4]
 80579b8:	60bb      	str	r3, [r7, #8]
 80579ba:	68bb      	ldr	r3, [r7, #8]
 80579bc:	f8d3 32d8 	ldr.w	r3, [r3, #728]	; 0x2d8
 80579c0:	60fb      	str	r3, [r7, #12]
 80579c2:	e001      	b.n	80579c8 <uxTaskGetTaskNumber+0x20>
 80579c4:	2300      	movs	r3, #0
 80579c6:	60fb      	str	r3, [r7, #12]
 80579c8:	68fb      	ldr	r3, [r7, #12]
 80579ca:	4618      	mov	r0, r3
 80579cc:	3714      	adds	r7, #20
 80579ce:	46bd      	mov	sp, r7
 80579d0:	bc80      	pop	{r7}
 80579d2:	4770      	bx	lr

080579d4 <vTaskSetTaskNumber>:
 80579d4:	b480      	push	{r7}
 80579d6:	b085      	sub	sp, #20
 80579d8:	af00      	add	r7, sp, #0
 80579da:	6078      	str	r0, [r7, #4]
 80579dc:	6039      	str	r1, [r7, #0]
 80579de:	687b      	ldr	r3, [r7, #4]
 80579e0:	2b00      	cmp	r3, #0
 80579e2:	d005      	beq.n	80579f0 <vTaskSetTaskNumber+0x1c>
 80579e4:	687b      	ldr	r3, [r7, #4]
 80579e6:	60fb      	str	r3, [r7, #12]
 80579e8:	68fb      	ldr	r3, [r7, #12]
 80579ea:	683a      	ldr	r2, [r7, #0]
 80579ec:	f8c3 22d8 	str.w	r2, [r3, #728]	; 0x2d8
 80579f0:	bf00      	nop
 80579f2:	3714      	adds	r7, #20
 80579f4:	46bd      	mov	sp, r7
 80579f6:	bc80      	pop	{r7}
 80579f8:	4770      	bx	lr

080579fa <pvTaskIncrementMutexHeldCount>:
 80579fa:	b480      	push	{r7}
 80579fc:	b083      	sub	sp, #12
 80579fe:	af00      	add	r7, sp, #0
 8057a00:	4b09      	ldr	r3, [pc, #36]	; (8057a28 <pvTaskIncrementMutexHeldCount+0x2e>)
 8057a02:	681b      	ldr	r3, [r3, #0]
 8057a04:	607b      	str	r3, [r7, #4]
 8057a06:	687b      	ldr	r3, [r7, #4]
 8057a08:	2b00      	cmp	r3, #0
 8057a0a:	d006      	beq.n	8057a1a <pvTaskIncrementMutexHeldCount+0x20>
 8057a0c:	687b      	ldr	r3, [r7, #4]
 8057a0e:	f8d3 32e0 	ldr.w	r3, [r3, #736]	; 0x2e0
 8057a12:	1c5a      	adds	r2, r3, #1
 8057a14:	687b      	ldr	r3, [r7, #4]
 8057a16:	f8c3 22e0 	str.w	r2, [r3, #736]	; 0x2e0
 8057a1a:	687b      	ldr	r3, [r7, #4]
 8057a1c:	4618      	mov	r0, r3
 8057a1e:	370c      	adds	r7, #12
 8057a20:	46bd      	mov	sp, r7
 8057a22:	bc80      	pop	{r7}
 8057a24:	4770      	bx	lr
 8057a26:	bf00      	nop
 8057a28:	20000100 	.word	0x20000100

08057a2c <vTaskInternalSetTimeOutState>:
 8057a2c:	b480      	push	{r7}
 8057a2e:	b083      	sub	sp, #12
 8057a30:	af00      	add	r7, sp, #0
 8057a32:	6078      	str	r0, [r7, #4]
 8057a34:	4b06      	ldr	r3, [pc, #24]	; (8057a50 <vTaskInternalSetTimeOutState+0x24>)
 8057a36:	681a      	ldr	r2, [r3, #0]
 8057a38:	687b      	ldr	r3, [r7, #4]
 8057a3a:	601a      	str	r2, [r3, #0]
 8057a3c:	4b05      	ldr	r3, [pc, #20]	; (8057a54 <vTaskInternalSetTimeOutState+0x28>)
 8057a3e:	681a      	ldr	r2, [r3, #0]
 8057a40:	687b      	ldr	r3, [r7, #4]
 8057a42:	605a      	str	r2, [r3, #4]
 8057a44:	bf00      	nop
 8057a46:	370c      	adds	r7, #12
 8057a48:	46bd      	mov	sp, r7
 8057a4a:	bc80      	pop	{r7}
 8057a4c:	4770      	bx	lr
 8057a4e:	bf00      	nop
 8057a50:	200002cc 	.word	0x200002cc
 8057a54:	200002b8 	.word	0x200002b8

08057a58 <xTaskGetMPUSettings>:
 8057a58:	b480      	push	{r7}
 8057a5a:	b085      	sub	sp, #20
 8057a5c:	af00      	add	r7, sp, #0
 8057a5e:	6078      	str	r0, [r7, #4]
 8057a60:	687b      	ldr	r3, [r7, #4]
 8057a62:	2b00      	cmp	r3, #0
 8057a64:	d102      	bne.n	8057a6c <xTaskGetMPUSettings+0x14>
 8057a66:	4b06      	ldr	r3, [pc, #24]	; (8057a80 <xTaskGetMPUSettings+0x28>)
 8057a68:	681b      	ldr	r3, [r3, #0]
 8057a6a:	e000      	b.n	8057a6e <xTaskGetMPUSettings+0x16>
 8057a6c:	687b      	ldr	r3, [r7, #4]
 8057a6e:	60fb      	str	r3, [r7, #12]
 8057a70:	68fb      	ldr	r3, [r7, #12]
 8057a72:	3304      	adds	r3, #4
 8057a74:	4618      	mov	r0, r3
 8057a76:	3714      	adds	r7, #20
 8057a78:	46bd      	mov	sp, r7
 8057a7a:	bc80      	pop	{r7}
 8057a7c:	4770      	bx	lr
 8057a7e:	bf00      	nop
 8057a80:	20000100 	.word	0x20000100

08057a84 <prvTaskIsTaskSuspended>:
 8057a84:	b580      	push	{r7, lr}
 8057a86:	b084      	sub	sp, #16
 8057a88:	af00      	add	r7, sp, #0
 8057a8a:	6078      	str	r0, [r7, #4]
 8057a8c:	2300      	movs	r3, #0
 8057a8e:	60fb      	str	r3, [r7, #12]
 8057a90:	687b      	ldr	r3, [r7, #4]
 8057a92:	60bb      	str	r3, [r7, #8]
 8057a94:	687b      	ldr	r3, [r7, #4]
 8057a96:	2b00      	cmp	r3, #0
 8057a98:	d102      	bne.n	8057aa0 <prvTaskIsTaskSuspended+0x1c>
 8057a9a:	4b0d      	ldr	r3, [pc, #52]	; (8057ad0 <prvTaskIsTaskSuspended+0x4c>)
 8057a9c:	4798      	blx	r3
 8057a9e:	e7fe      	b.n	8057a9e <prvTaskIsTaskSuspended+0x1a>
 8057aa0:	68bb      	ldr	r3, [r7, #8]
 8057aa2:	f8d3 32a4 	ldr.w	r3, [r3, #676]	; 0x2a4
 8057aa6:	4a0b      	ldr	r2, [pc, #44]	; (8057ad4 <prvTaskIsTaskSuspended+0x50>)
 8057aa8:	4293      	cmp	r3, r2
 8057aaa:	d10c      	bne.n	8057ac6 <prvTaskIsTaskSuspended+0x42>
 8057aac:	68bb      	ldr	r3, [r7, #8]
 8057aae:	f8d3 32b8 	ldr.w	r3, [r3, #696]	; 0x2b8
 8057ab2:	4a09      	ldr	r2, [pc, #36]	; (8057ad8 <prvTaskIsTaskSuspended+0x54>)
 8057ab4:	4293      	cmp	r3, r2
 8057ab6:	d006      	beq.n	8057ac6 <prvTaskIsTaskSuspended+0x42>
 8057ab8:	68bb      	ldr	r3, [r7, #8]
 8057aba:	f8d3 32b8 	ldr.w	r3, [r3, #696]	; 0x2b8
 8057abe:	2b00      	cmp	r3, #0
 8057ac0:	d101      	bne.n	8057ac6 <prvTaskIsTaskSuspended+0x42>
 8057ac2:	2301      	movs	r3, #1
 8057ac4:	60fb      	str	r3, [r7, #12]
 8057ac6:	68fb      	ldr	r3, [r7, #12]
 8057ac8:	4618      	mov	r0, r3
 8057aca:	3710      	adds	r7, #16
 8057acc:	46bd      	mov	sp, r7
 8057ace:	bd80      	pop	{r7, pc}
 8057ad0:	0805f1c7 	.word	0x0805f1c7
 8057ad4:	200002a0 	.word	0x200002a0
 8057ad8:	20000274 	.word	0x20000274

08057adc <prvInitialiseTaskLists>:
 8057adc:	b580      	push	{r7, lr}
 8057ade:	b082      	sub	sp, #8
 8057ae0:	af00      	add	r7, sp, #0
 8057ae2:	2300      	movs	r3, #0
 8057ae4:	607b      	str	r3, [r7, #4]
 8057ae6:	e00c      	b.n	8057b02 <prvInitialiseTaskLists+0x26>
 8057ae8:	687a      	ldr	r2, [r7, #4]
 8057aea:	4613      	mov	r3, r2
 8057aec:	009b      	lsls	r3, r3, #2
 8057aee:	4413      	add	r3, r2
 8057af0:	009b      	lsls	r3, r3, #2
 8057af2:	4a12      	ldr	r2, [pc, #72]	; (8057b3c <prvInitialiseTaskLists+0x60>)
 8057af4:	4413      	add	r3, r2
 8057af6:	4618      	mov	r0, r3
 8057af8:	4b11      	ldr	r3, [pc, #68]	; (8057b40 <prvInitialiseTaskLists+0x64>)
 8057afa:	4798      	blx	r3
 8057afc:	687b      	ldr	r3, [r7, #4]
 8057afe:	3301      	adds	r3, #1
 8057b00:	607b      	str	r3, [r7, #4]
 8057b02:	687b      	ldr	r3, [r7, #4]
 8057b04:	2b0f      	cmp	r3, #15
 8057b06:	d9ef      	bls.n	8057ae8 <prvInitialiseTaskLists+0xc>
 8057b08:	480e      	ldr	r0, [pc, #56]	; (8057b44 <prvInitialiseTaskLists+0x68>)
 8057b0a:	4b0d      	ldr	r3, [pc, #52]	; (8057b40 <prvInitialiseTaskLists+0x64>)
 8057b0c:	4798      	blx	r3
 8057b0e:	480e      	ldr	r0, [pc, #56]	; (8057b48 <prvInitialiseTaskLists+0x6c>)
 8057b10:	4b0b      	ldr	r3, [pc, #44]	; (8057b40 <prvInitialiseTaskLists+0x64>)
 8057b12:	4798      	blx	r3
 8057b14:	480d      	ldr	r0, [pc, #52]	; (8057b4c <prvInitialiseTaskLists+0x70>)
 8057b16:	4b0a      	ldr	r3, [pc, #40]	; (8057b40 <prvInitialiseTaskLists+0x64>)
 8057b18:	4798      	blx	r3
 8057b1a:	480d      	ldr	r0, [pc, #52]	; (8057b50 <prvInitialiseTaskLists+0x74>)
 8057b1c:	4b08      	ldr	r3, [pc, #32]	; (8057b40 <prvInitialiseTaskLists+0x64>)
 8057b1e:	4798      	blx	r3
 8057b20:	480c      	ldr	r0, [pc, #48]	; (8057b54 <prvInitialiseTaskLists+0x78>)
 8057b22:	4b07      	ldr	r3, [pc, #28]	; (8057b40 <prvInitialiseTaskLists+0x64>)
 8057b24:	4798      	blx	r3
 8057b26:	4b0c      	ldr	r3, [pc, #48]	; (8057b58 <prvInitialiseTaskLists+0x7c>)
 8057b28:	4a06      	ldr	r2, [pc, #24]	; (8057b44 <prvInitialiseTaskLists+0x68>)
 8057b2a:	601a      	str	r2, [r3, #0]
 8057b2c:	4b0b      	ldr	r3, [pc, #44]	; (8057b5c <prvInitialiseTaskLists+0x80>)
 8057b2e:	4a06      	ldr	r2, [pc, #24]	; (8057b48 <prvInitialiseTaskLists+0x6c>)
 8057b30:	601a      	str	r2, [r3, #0]
 8057b32:	bf00      	nop
 8057b34:	3708      	adds	r7, #8
 8057b36:	46bd      	mov	sp, r7
 8057b38:	bd80      	pop	{r7, pc}
 8057b3a:	bf00      	nop
 8057b3c:	20000104 	.word	0x20000104
 8057b40:	0805c33d 	.word	0x0805c33d
 8057b44:	20000244 	.word	0x20000244
 8057b48:	20000258 	.word	0x20000258
 8057b4c:	20000274 	.word	0x20000274
 8057b50:	20000288 	.word	0x20000288
 8057b54:	200002a0 	.word	0x200002a0
 8057b58:	2000026c 	.word	0x2000026c
 8057b5c:	20000270 	.word	0x20000270

08057b60 <prvIdleTask>:
 8057b60:	b580      	push	{r7, lr}
 8057b62:	b082      	sub	sp, #8
 8057b64:	af00      	add	r7, sp, #0
 8057b66:	6078      	str	r0, [r7, #4]
 8057b68:	f000 f834 	bl	8057bd4 <prvCheckTasksWaitingTermination>
 8057b6c:	4b02      	ldr	r3, [pc, #8]	; (8057b78 <prvIdleTask+0x18>)
 8057b6e:	681b      	ldr	r3, [r3, #0]
 8057b70:	2b01      	cmp	r3, #1
 8057b72:	d9f9      	bls.n	8057b68 <prvIdleTask+0x8>
 8057b74:	df07      	svc	7
 8057b76:	e7f7      	b.n	8057b68 <prvIdleTask+0x8>
 8057b78:	20000104 	.word	0x20000104

08057b7c <prvDeleteTCB>:
 8057b7c:	b580      	push	{r7, lr}
 8057b7e:	b082      	sub	sp, #8
 8057b80:	af00      	add	r7, sp, #0
 8057b82:	6078      	str	r0, [r7, #4]
 8057b84:	687b      	ldr	r3, [r7, #4]
 8057b86:	f893 32e9 	ldrb.w	r3, [r3, #745]	; 0x2e9
 8057b8a:	2b00      	cmp	r3, #0
 8057b8c:	d109      	bne.n	8057ba2 <prvDeleteTCB+0x26>
 8057b8e:	687b      	ldr	r3, [r7, #4]
 8057b90:	f8d3 32c0 	ldr.w	r3, [r3, #704]	; 0x2c0
 8057b94:	4618      	mov	r0, r3
 8057b96:	4b0d      	ldr	r3, [pc, #52]	; (8057bcc <prvDeleteTCB+0x50>)
 8057b98:	4798      	blx	r3
 8057b9a:	6878      	ldr	r0, [r7, #4]
 8057b9c:	4b0b      	ldr	r3, [pc, #44]	; (8057bcc <prvDeleteTCB+0x50>)
 8057b9e:	4798      	blx	r3
 8057ba0:	e010      	b.n	8057bc4 <prvDeleteTCB+0x48>
 8057ba2:	687b      	ldr	r3, [r7, #4]
 8057ba4:	f893 32e9 	ldrb.w	r3, [r3, #745]	; 0x2e9
 8057ba8:	2b01      	cmp	r3, #1
 8057baa:	d103      	bne.n	8057bb4 <prvDeleteTCB+0x38>
 8057bac:	6878      	ldr	r0, [r7, #4]
 8057bae:	4b07      	ldr	r3, [pc, #28]	; (8057bcc <prvDeleteTCB+0x50>)
 8057bb0:	4798      	blx	r3
 8057bb2:	e007      	b.n	8057bc4 <prvDeleteTCB+0x48>
 8057bb4:	687b      	ldr	r3, [r7, #4]
 8057bb6:	f893 32e9 	ldrb.w	r3, [r3, #745]	; 0x2e9
 8057bba:	2b02      	cmp	r3, #2
 8057bbc:	d002      	beq.n	8057bc4 <prvDeleteTCB+0x48>
 8057bbe:	4b04      	ldr	r3, [pc, #16]	; (8057bd0 <prvDeleteTCB+0x54>)
 8057bc0:	4798      	blx	r3
 8057bc2:	e7fe      	b.n	8057bc2 <prvDeleteTCB+0x46>
 8057bc4:	bf00      	nop
 8057bc6:	3708      	adds	r7, #8
 8057bc8:	46bd      	mov	sp, r7
 8057bca:	bd80      	pop	{r7, pc}
 8057bcc:	0805baa1 	.word	0x0805baa1
 8057bd0:	0805f1c7 	.word	0x0805f1c7

08057bd4 <prvCheckTasksWaitingTermination>:
 8057bd4:	b580      	push	{r7, lr}
 8057bd6:	b082      	sub	sp, #8
 8057bd8:	af00      	add	r7, sp, #0
 8057bda:	e01a      	b.n	8057c12 <prvCheckTasksWaitingTermination+0x3e>
 8057bdc:	4b11      	ldr	r3, [pc, #68]	; (8057c24 <prvCheckTasksWaitingTermination+0x50>)
 8057bde:	4798      	blx	r3
 8057be0:	4b11      	ldr	r3, [pc, #68]	; (8057c28 <prvCheckTasksWaitingTermination+0x54>)
 8057be2:	68db      	ldr	r3, [r3, #12]
 8057be4:	68db      	ldr	r3, [r3, #12]
 8057be6:	607b      	str	r3, [r7, #4]
 8057be8:	687b      	ldr	r3, [r7, #4]
 8057bea:	f503 7325 	add.w	r3, r3, #660	; 0x294
 8057bee:	4618      	mov	r0, r3
 8057bf0:	4b0e      	ldr	r3, [pc, #56]	; (8057c2c <prvCheckTasksWaitingTermination+0x58>)
 8057bf2:	4798      	blx	r3
 8057bf4:	4b0e      	ldr	r3, [pc, #56]	; (8057c30 <prvCheckTasksWaitingTermination+0x5c>)
 8057bf6:	681b      	ldr	r3, [r3, #0]
 8057bf8:	3b01      	subs	r3, #1
 8057bfa:	4a0d      	ldr	r2, [pc, #52]	; (8057c30 <prvCheckTasksWaitingTermination+0x5c>)
 8057bfc:	6013      	str	r3, [r2, #0]
 8057bfe:	4b0d      	ldr	r3, [pc, #52]	; (8057c34 <prvCheckTasksWaitingTermination+0x60>)
 8057c00:	681b      	ldr	r3, [r3, #0]
 8057c02:	3b01      	subs	r3, #1
 8057c04:	4a0b      	ldr	r2, [pc, #44]	; (8057c34 <prvCheckTasksWaitingTermination+0x60>)
 8057c06:	6013      	str	r3, [r2, #0]
 8057c08:	4b0b      	ldr	r3, [pc, #44]	; (8057c38 <prvCheckTasksWaitingTermination+0x64>)
 8057c0a:	4798      	blx	r3
 8057c0c:	6878      	ldr	r0, [r7, #4]
 8057c0e:	f7ff ffb5 	bl	8057b7c <prvDeleteTCB>
 8057c12:	4b08      	ldr	r3, [pc, #32]	; (8057c34 <prvCheckTasksWaitingTermination+0x60>)
 8057c14:	681b      	ldr	r3, [r3, #0]
 8057c16:	2b00      	cmp	r3, #0
 8057c18:	d1e0      	bne.n	8057bdc <prvCheckTasksWaitingTermination+0x8>
 8057c1a:	bf00      	nop
 8057c1c:	bf00      	nop
 8057c1e:	3708      	adds	r7, #8
 8057c20:	46bd      	mov	sp, r7
 8057c22:	bd80      	pop	{r7, pc}
 8057c24:	0805ecc5 	.word	0x0805ecc5
 8057c28:	20000288 	.word	0x20000288
 8057c2c:	0805c449 	.word	0x0805c449
 8057c30:	200002b4 	.word	0x200002b4
 8057c34:	2000029c 	.word	0x2000029c
 8057c38:	0805eced 	.word	0x0805eced

08057c3c <prvAddCurrentTaskToDelayedList>:
 8057c3c:	b580      	push	{r7, lr}
 8057c3e:	b086      	sub	sp, #24
 8057c40:	af00      	add	r7, sp, #0
 8057c42:	6078      	str	r0, [r7, #4]
 8057c44:	6039      	str	r1, [r7, #0]
 8057c46:	4b33      	ldr	r3, [pc, #204]	; (8057d14 <prvAddCurrentTaskToDelayedList+0xd8>)
 8057c48:	681b      	ldr	r3, [r3, #0]
 8057c4a:	617b      	str	r3, [r7, #20]
 8057c4c:	4b32      	ldr	r3, [pc, #200]	; (8057d18 <prvAddCurrentTaskToDelayedList+0xdc>)
 8057c4e:	681b      	ldr	r3, [r3, #0]
 8057c50:	f503 7325 	add.w	r3, r3, #660	; 0x294
 8057c54:	4618      	mov	r0, r3
 8057c56:	4b31      	ldr	r3, [pc, #196]	; (8057d1c <prvAddCurrentTaskToDelayedList+0xe0>)
 8057c58:	4798      	blx	r3
 8057c5a:	687b      	ldr	r3, [r7, #4]
 8057c5c:	f1b3 3fff 	cmp.w	r3, #4294967295	; 0xffffffff
 8057c60:	d129      	bne.n	8057cb6 <prvAddCurrentTaskToDelayedList+0x7a>
 8057c62:	683b      	ldr	r3, [r7, #0]
 8057c64:	2b00      	cmp	r3, #0
 8057c66:	d026      	beq.n	8057cb6 <prvAddCurrentTaskToDelayedList+0x7a>
 8057c68:	4b2d      	ldr	r3, [pc, #180]	; (8057d20 <prvAddCurrentTaskToDelayedList+0xe4>)
 8057c6a:	685b      	ldr	r3, [r3, #4]
 8057c6c:	613b      	str	r3, [r7, #16]
 8057c6e:	4b2a      	ldr	r3, [pc, #168]	; (8057d18 <prvAddCurrentTaskToDelayedList+0xdc>)
 8057c70:	681b      	ldr	r3, [r3, #0]
 8057c72:	693a      	ldr	r2, [r7, #16]
 8057c74:	f8c3 2298 	str.w	r2, [r3, #664]	; 0x298
 8057c78:	4b27      	ldr	r3, [pc, #156]	; (8057d18 <prvAddCurrentTaskToDelayedList+0xdc>)
 8057c7a:	681b      	ldr	r3, [r3, #0]
 8057c7c:	693a      	ldr	r2, [r7, #16]
 8057c7e:	6892      	ldr	r2, [r2, #8]
 8057c80:	f8c3 229c 	str.w	r2, [r3, #668]	; 0x29c
 8057c84:	4b24      	ldr	r3, [pc, #144]	; (8057d18 <prvAddCurrentTaskToDelayedList+0xdc>)
 8057c86:	681a      	ldr	r2, [r3, #0]
 8057c88:	693b      	ldr	r3, [r7, #16]
 8057c8a:	689b      	ldr	r3, [r3, #8]
 8057c8c:	f502 7225 	add.w	r2, r2, #660	; 0x294
 8057c90:	605a      	str	r2, [r3, #4]
 8057c92:	4b21      	ldr	r3, [pc, #132]	; (8057d18 <prvAddCurrentTaskToDelayedList+0xdc>)
 8057c94:	681b      	ldr	r3, [r3, #0]
 8057c96:	f503 7225 	add.w	r2, r3, #660	; 0x294
 8057c9a:	693b      	ldr	r3, [r7, #16]
 8057c9c:	609a      	str	r2, [r3, #8]
 8057c9e:	4b1e      	ldr	r3, [pc, #120]	; (8057d18 <prvAddCurrentTaskToDelayedList+0xdc>)
 8057ca0:	681b      	ldr	r3, [r3, #0]
 8057ca2:	4a1f      	ldr	r2, [pc, #124]	; (8057d20 <prvAddCurrentTaskToDelayedList+0xe4>)
 8057ca4:	f8c3 22a4 	str.w	r2, [r3, #676]	; 0x2a4
 8057ca8:	4b1d      	ldr	r3, [pc, #116]	; (8057d20 <prvAddCurrentTaskToDelayedList+0xe4>)
 8057caa:	681b      	ldr	r3, [r3, #0]
 8057cac:	3301      	adds	r3, #1
 8057cae:	4a1c      	ldr	r2, [pc, #112]	; (8057d20 <prvAddCurrentTaskToDelayedList+0xe4>)
 8057cb0:	6013      	str	r3, [r2, #0]
 8057cb2:	bf00      	nop
 8057cb4:	e029      	b.n	8057d0a <prvAddCurrentTaskToDelayedList+0xce>
 8057cb6:	697a      	ldr	r2, [r7, #20]
 8057cb8:	687b      	ldr	r3, [r7, #4]
 8057cba:	4413      	add	r3, r2
 8057cbc:	60fb      	str	r3, [r7, #12]
 8057cbe:	4b16      	ldr	r3, [pc, #88]	; (8057d18 <prvAddCurrentTaskToDelayedList+0xdc>)
 8057cc0:	681b      	ldr	r3, [r3, #0]
 8057cc2:	68fa      	ldr	r2, [r7, #12]
 8057cc4:	f8c3 2294 	str.w	r2, [r3, #660]	; 0x294
 8057cc8:	68fa      	ldr	r2, [r7, #12]
 8057cca:	697b      	ldr	r3, [r7, #20]
 8057ccc:	429a      	cmp	r2, r3
 8057cce:	d20a      	bcs.n	8057ce6 <prvAddCurrentTaskToDelayedList+0xaa>
 8057cd0:	4b14      	ldr	r3, [pc, #80]	; (8057d24 <prvAddCurrentTaskToDelayedList+0xe8>)
 8057cd2:	681a      	ldr	r2, [r3, #0]
 8057cd4:	4b10      	ldr	r3, [pc, #64]	; (8057d18 <prvAddCurrentTaskToDelayedList+0xdc>)
 8057cd6:	681b      	ldr	r3, [r3, #0]
 8057cd8:	f503 7325 	add.w	r3, r3, #660	; 0x294
 8057cdc:	4619      	mov	r1, r3
 8057cde:	4610      	mov	r0, r2
 8057ce0:	4b11      	ldr	r3, [pc, #68]	; (8057d28 <prvAddCurrentTaskToDelayedList+0xec>)
 8057ce2:	4798      	blx	r3
 8057ce4:	e011      	b.n	8057d0a <prvAddCurrentTaskToDelayedList+0xce>
 8057ce6:	4b11      	ldr	r3, [pc, #68]	; (8057d2c <prvAddCurrentTaskToDelayedList+0xf0>)
 8057ce8:	681a      	ldr	r2, [r3, #0]
 8057cea:	4b0b      	ldr	r3, [pc, #44]	; (8057d18 <prvAddCurrentTaskToDelayedList+0xdc>)
 8057cec:	681b      	ldr	r3, [r3, #0]
 8057cee:	f503 7325 	add.w	r3, r3, #660	; 0x294
 8057cf2:	4619      	mov	r1, r3
 8057cf4:	4610      	mov	r0, r2
 8057cf6:	4b0c      	ldr	r3, [pc, #48]	; (8057d28 <prvAddCurrentTaskToDelayedList+0xec>)
 8057cf8:	4798      	blx	r3
 8057cfa:	4b0d      	ldr	r3, [pc, #52]	; (8057d30 <prvAddCurrentTaskToDelayedList+0xf4>)
 8057cfc:	681b      	ldr	r3, [r3, #0]
 8057cfe:	68fa      	ldr	r2, [r7, #12]
 8057d00:	429a      	cmp	r2, r3
 8057d02:	d202      	bcs.n	8057d0a <prvAddCurrentTaskToDelayedList+0xce>
 8057d04:	4a0a      	ldr	r2, [pc, #40]	; (8057d30 <prvAddCurrentTaskToDelayedList+0xf4>)
 8057d06:	68fb      	ldr	r3, [r7, #12]
 8057d08:	6013      	str	r3, [r2, #0]
 8057d0a:	bf00      	nop
 8057d0c:	3718      	adds	r7, #24
 8057d0e:	46bd      	mov	sp, r7
 8057d10:	bd80      	pop	{r7, pc}
 8057d12:	bf00      	nop
 8057d14:	200002b8 	.word	0x200002b8
 8057d18:	20000100 	.word	0x20000100
 8057d1c:	0805c449 	.word	0x0805c449
 8057d20:	200002a0 	.word	0x200002a0
 8057d24:	20000270 	.word	0x20000270
 8057d28:	0805c393 	.word	0x0805c393
 8057d2c:	2000026c 	.word	0x2000026c
 8057d30:	200002d4 	.word	0x200002d4

08057d34 <prvListTasksWithinSingleList>:
 8057d34:	b580      	push	{r7, lr}
 8057d36:	b08a      	sub	sp, #40	; 0x28
 8057d38:	af00      	add	r7, sp, #0
 8057d3a:	60f8      	str	r0, [r7, #12]
 8057d3c:	60b9      	str	r1, [r7, #8]
 8057d3e:	4613      	mov	r3, r2
 8057d40:	71fb      	strb	r3, [r7, #7]
 8057d42:	2300      	movs	r3, #0
 8057d44:	627b      	str	r3, [r7, #36]	; 0x24
 8057d46:	68bb      	ldr	r3, [r7, #8]
 8057d48:	681b      	ldr	r3, [r3, #0]
 8057d4a:	2b00      	cmp	r3, #0
 8057d4c:	d03d      	beq.n	8057dca <prvListTasksWithinSingleList+0x96>
 8057d4e:	68bb      	ldr	r3, [r7, #8]
 8057d50:	623b      	str	r3, [r7, #32]
 8057d52:	6a3b      	ldr	r3, [r7, #32]
 8057d54:	685b      	ldr	r3, [r3, #4]
 8057d56:	685a      	ldr	r2, [r3, #4]
 8057d58:	6a3b      	ldr	r3, [r7, #32]
 8057d5a:	605a      	str	r2, [r3, #4]
 8057d5c:	6a3b      	ldr	r3, [r7, #32]
 8057d5e:	685a      	ldr	r2, [r3, #4]
 8057d60:	6a3b      	ldr	r3, [r7, #32]
 8057d62:	3308      	adds	r3, #8
 8057d64:	429a      	cmp	r2, r3
 8057d66:	d103      	bne.n	8057d70 <prvListTasksWithinSingleList+0x3c>
 8057d68:	6a3b      	ldr	r3, [r7, #32]
 8057d6a:	68da      	ldr	r2, [r3, #12]
 8057d6c:	6a3b      	ldr	r3, [r7, #32]
 8057d6e:	605a      	str	r2, [r3, #4]
 8057d70:	6a3b      	ldr	r3, [r7, #32]
 8057d72:	685b      	ldr	r3, [r3, #4]
 8057d74:	68db      	ldr	r3, [r3, #12]
 8057d76:	61fb      	str	r3, [r7, #28]
 8057d78:	68bb      	ldr	r3, [r7, #8]
 8057d7a:	61bb      	str	r3, [r7, #24]
 8057d7c:	69bb      	ldr	r3, [r7, #24]
 8057d7e:	685b      	ldr	r3, [r3, #4]
 8057d80:	685a      	ldr	r2, [r3, #4]
 8057d82:	69bb      	ldr	r3, [r7, #24]
 8057d84:	605a      	str	r2, [r3, #4]
 8057d86:	69bb      	ldr	r3, [r7, #24]
 8057d88:	685a      	ldr	r2, [r3, #4]
 8057d8a:	69bb      	ldr	r3, [r7, #24]
 8057d8c:	3308      	adds	r3, #8
 8057d8e:	429a      	cmp	r2, r3
 8057d90:	d103      	bne.n	8057d9a <prvListTasksWithinSingleList+0x66>
 8057d92:	69bb      	ldr	r3, [r7, #24]
 8057d94:	68da      	ldr	r2, [r3, #12]
 8057d96:	69bb      	ldr	r3, [r7, #24]
 8057d98:	605a      	str	r2, [r3, #4]
 8057d9a:	69bb      	ldr	r3, [r7, #24]
 8057d9c:	685b      	ldr	r3, [r3, #4]
 8057d9e:	68db      	ldr	r3, [r3, #12]
 8057da0:	617b      	str	r3, [r7, #20]
 8057da2:	6a7a      	ldr	r2, [r7, #36]	; 0x24
 8057da4:	4613      	mov	r3, r2
 8057da6:	00db      	lsls	r3, r3, #3
 8057da8:	4413      	add	r3, r2
 8057daa:	009b      	lsls	r3, r3, #2
 8057dac:	461a      	mov	r2, r3
 8057dae:	68fb      	ldr	r3, [r7, #12]
 8057db0:	1899      	adds	r1, r3, r2
 8057db2:	79fb      	ldrb	r3, [r7, #7]
 8057db4:	2201      	movs	r2, #1
 8057db6:	6978      	ldr	r0, [r7, #20]
 8057db8:	f7fd fca4 	bl	8055704 <vTaskGetInfo>
 8057dbc:	6a7b      	ldr	r3, [r7, #36]	; 0x24
 8057dbe:	3301      	adds	r3, #1
 8057dc0:	627b      	str	r3, [r7, #36]	; 0x24
 8057dc2:	697a      	ldr	r2, [r7, #20]
 8057dc4:	69fb      	ldr	r3, [r7, #28]
 8057dc6:	429a      	cmp	r2, r3
 8057dc8:	d1d6      	bne.n	8057d78 <prvListTasksWithinSingleList+0x44>
 8057dca:	6a7b      	ldr	r3, [r7, #36]	; 0x24
 8057dcc:	4618      	mov	r0, r3
 8057dce:	3728      	adds	r7, #40	; 0x28
 8057dd0:	46bd      	mov	sp, r7
 8057dd2:	bd80      	pop	{r7, pc}

08057dd4 <prvTaskCheckFreeStackSpace>:
 8057dd4:	b480      	push	{r7}
 8057dd6:	b085      	sub	sp, #20
 8057dd8:	af00      	add	r7, sp, #0
 8057dda:	6078      	str	r0, [r7, #4]
 8057ddc:	2300      	movs	r3, #0
 8057dde:	60fb      	str	r3, [r7, #12]
 8057de0:	e005      	b.n	8057dee <prvTaskCheckFreeStackSpace+0x1a>
 8057de2:	687b      	ldr	r3, [r7, #4]
 8057de4:	3301      	adds	r3, #1
 8057de6:	607b      	str	r3, [r7, #4]
 8057de8:	68fb      	ldr	r3, [r7, #12]
 8057dea:	3301      	adds	r3, #1
 8057dec:	60fb      	str	r3, [r7, #12]
 8057dee:	687b      	ldr	r3, [r7, #4]
 8057df0:	781b      	ldrb	r3, [r3, #0]
 8057df2:	2ba5      	cmp	r3, #165	; 0xa5
 8057df4:	d0f5      	beq.n	8057de2 <prvTaskCheckFreeStackSpace+0xe>
 8057df6:	68fb      	ldr	r3, [r7, #12]
 8057df8:	089b      	lsrs	r3, r3, #2
 8057dfa:	60fb      	str	r3, [r7, #12]
 8057dfc:	68fb      	ldr	r3, [r7, #12]
 8057dfe:	b29b      	uxth	r3, r3
 8057e00:	4618      	mov	r0, r3
 8057e02:	3714      	adds	r7, #20
 8057e04:	46bd      	mov	sp, r7
 8057e06:	bc80      	pop	{r7}
 8057e08:	4770      	bx	lr

08057e0a <prvResetNextTaskUnblockTime>:
 8057e0a:	b480      	push	{r7}
 8057e0c:	af00      	add	r7, sp, #0
 8057e0e:	4b0a      	ldr	r3, [pc, #40]	; (8057e38 <prvResetNextTaskUnblockTime+0x2e>)
 8057e10:	681b      	ldr	r3, [r3, #0]
 8057e12:	681b      	ldr	r3, [r3, #0]
 8057e14:	2b00      	cmp	r3, #0
 8057e16:	d104      	bne.n	8057e22 <prvResetNextTaskUnblockTime+0x18>
 8057e18:	4b08      	ldr	r3, [pc, #32]	; (8057e3c <prvResetNextTaskUnblockTime+0x32>)
 8057e1a:	f04f 32ff 	mov.w	r2, #4294967295	; 0xffffffff
 8057e1e:	601a      	str	r2, [r3, #0]
 8057e20:	e005      	b.n	8057e2e <prvResetNextTaskUnblockTime+0x24>
 8057e22:	4b05      	ldr	r3, [pc, #20]	; (8057e38 <prvResetNextTaskUnblockTime+0x2e>)
 8057e24:	681b      	ldr	r3, [r3, #0]
 8057e26:	68db      	ldr	r3, [r3, #12]
 8057e28:	681b      	ldr	r3, [r3, #0]
 8057e2a:	4a04      	ldr	r2, [pc, #16]	; (8057e3c <prvResetNextTaskUnblockTime+0x32>)
 8057e2c:	6013      	str	r3, [r2, #0]
 8057e2e:	bf00      	nop
 8057e30:	46bd      	mov	sp, r7
 8057e32:	bc80      	pop	{r7}
 8057e34:	4770      	bx	lr
 8057e36:	bf00      	nop
 8057e38:	2000026c 	.word	0x2000026c
 8057e3c:	200002d4 	.word	0x200002d4

08057e40 <prvInitialiseNewTask>:
 8057e40:	b590      	push	{r4, r7, lr}
 8057e42:	b08b      	sub	sp, #44	; 0x2c
 8057e44:	af02      	add	r7, sp, #8
 8057e46:	60f8      	str	r0, [r7, #12]
 8057e48:	60b9      	str	r1, [r7, #8]
 8057e4a:	607a      	str	r2, [r7, #4]
 8057e4c:	603b      	str	r3, [r7, #0]
 8057e4e:	6b3b      	ldr	r3, [r7, #48]	; 0x30
 8057e50:	2b00      	cmp	r3, #0
 8057e52:	da02      	bge.n	8057e5a <prvInitialiseNewTask+0x1a>
 8057e54:	2301      	movs	r3, #1
 8057e56:	61bb      	str	r3, [r7, #24]
 8057e58:	e001      	b.n	8057e5e <prvInitialiseNewTask+0x1e>
 8057e5a:	2300      	movs	r3, #0
 8057e5c:	61bb      	str	r3, [r7, #24]
 8057e5e:	6b3b      	ldr	r3, [r7, #48]	; 0x30
 8057e60:	f023 4300 	bic.w	r3, r3, #2147483648	; 0x80000000
 8057e64:	633b      	str	r3, [r7, #48]	; 0x30
 8057e66:	6bbb      	ldr	r3, [r7, #56]	; 0x38
 8057e68:	f8d3 02c0 	ldr.w	r0, [r3, #704]	; 0x2c0
 8057e6c:	687b      	ldr	r3, [r7, #4]
 8057e6e:	009b      	lsls	r3, r3, #2
 8057e70:	461a      	mov	r2, r3
 8057e72:	21a5      	movs	r1, #165	; 0xa5
 8057e74:	4b45      	ldr	r3, [pc, #276]	; (8057f8c <prvInitialiseNewTask+0x14c>)
 8057e76:	4798      	blx	r3
 8057e78:	6bbb      	ldr	r3, [r7, #56]	; 0x38
 8057e7a:	f8d3 22c0 	ldr.w	r2, [r3, #704]	; 0x2c0
 8057e7e:	687b      	ldr	r3, [r7, #4]
 8057e80:	f103 4380 	add.w	r3, r3, #1073741824	; 0x40000000
 8057e84:	3b01      	subs	r3, #1
 8057e86:	009b      	lsls	r3, r3, #2
 8057e88:	4413      	add	r3, r2
 8057e8a:	617b      	str	r3, [r7, #20]
 8057e8c:	697b      	ldr	r3, [r7, #20]
 8057e8e:	f023 0307 	bic.w	r3, r3, #7
 8057e92:	617b      	str	r3, [r7, #20]
 8057e94:	697b      	ldr	r3, [r7, #20]
 8057e96:	f003 0307 	and.w	r3, r3, #7
 8057e9a:	2b00      	cmp	r3, #0
 8057e9c:	d002      	beq.n	8057ea4 <prvInitialiseNewTask+0x64>
 8057e9e:	4b3c      	ldr	r3, [pc, #240]	; (8057f90 <prvInitialiseNewTask+0x150>)
 8057ea0:	4798      	blx	r3
 8057ea2:	e7fe      	b.n	8057ea2 <prvInitialiseNewTask+0x62>
 8057ea4:	68bb      	ldr	r3, [r7, #8]
 8057ea6:	2b00      	cmp	r3, #0
 8057ea8:	d01f      	beq.n	8057eea <prvInitialiseNewTask+0xaa>
 8057eaa:	2300      	movs	r3, #0
 8057eac:	61fb      	str	r3, [r7, #28]
 8057eae:	e013      	b.n	8057ed8 <prvInitialiseNewTask+0x98>
 8057eb0:	68ba      	ldr	r2, [r7, #8]
 8057eb2:	69fb      	ldr	r3, [r7, #28]
 8057eb4:	4413      	add	r3, r2
 8057eb6:	7819      	ldrb	r1, [r3, #0]
 8057eb8:	6bba      	ldr	r2, [r7, #56]	; 0x38
 8057eba:	69fb      	ldr	r3, [r7, #28]
 8057ebc:	4413      	add	r3, r2
 8057ebe:	f503 7331 	add.w	r3, r3, #708	; 0x2c4
 8057ec2:	460a      	mov	r2, r1
 8057ec4:	701a      	strb	r2, [r3, #0]
 8057ec6:	68ba      	ldr	r2, [r7, #8]
 8057ec8:	69fb      	ldr	r3, [r7, #28]
 8057eca:	4413      	add	r3, r2
 8057ecc:	781b      	ldrb	r3, [r3, #0]
 8057ece:	2b00      	cmp	r3, #0
 8057ed0:	d006      	beq.n	8057ee0 <prvInitialiseNewTask+0xa0>
 8057ed2:	69fb      	ldr	r3, [r7, #28]
 8057ed4:	3301      	adds	r3, #1
 8057ed6:	61fb      	str	r3, [r7, #28]
 8057ed8:	69fb      	ldr	r3, [r7, #28]
 8057eda:	2b0f      	cmp	r3, #15
 8057edc:	d9e8      	bls.n	8057eb0 <prvInitialiseNewTask+0x70>
 8057ede:	e000      	b.n	8057ee2 <prvInitialiseNewTask+0xa2>
 8057ee0:	bf00      	nop
 8057ee2:	6bbb      	ldr	r3, [r7, #56]	; 0x38
 8057ee4:	2200      	movs	r2, #0
 8057ee6:	f883 22d3 	strb.w	r2, [r3, #723]	; 0x2d3
 8057eea:	6b3b      	ldr	r3, [r7, #48]	; 0x30
 8057eec:	2b0f      	cmp	r3, #15
 8057eee:	d902      	bls.n	8057ef6 <prvInitialiseNewTask+0xb6>
 8057ef0:	4b27      	ldr	r3, [pc, #156]	; (8057f90 <prvInitialiseNewTask+0x150>)
 8057ef2:	4798      	blx	r3
 8057ef4:	e7fe      	b.n	8057ef4 <prvInitialiseNewTask+0xb4>
 8057ef6:	6b3b      	ldr	r3, [r7, #48]	; 0x30
 8057ef8:	2b0f      	cmp	r3, #15
 8057efa:	d901      	bls.n	8057f00 <prvInitialiseNewTask+0xc0>
 8057efc:	230f      	movs	r3, #15
 8057efe:	633b      	str	r3, [r7, #48]	; 0x30
 8057f00:	6bbb      	ldr	r3, [r7, #56]	; 0x38
 8057f02:	6b3a      	ldr	r2, [r7, #48]	; 0x30
 8057f04:	f8c3 22bc 	str.w	r2, [r3, #700]	; 0x2bc
 8057f08:	6bbb      	ldr	r3, [r7, #56]	; 0x38
 8057f0a:	6b3a      	ldr	r2, [r7, #48]	; 0x30
 8057f0c:	f8c3 22dc 	str.w	r2, [r3, #732]	; 0x2dc
 8057f10:	6bbb      	ldr	r3, [r7, #56]	; 0x38
 8057f12:	f503 7325 	add.w	r3, r3, #660	; 0x294
 8057f16:	4618      	mov	r0, r3
 8057f18:	4b1e      	ldr	r3, [pc, #120]	; (8057f94 <prvInitialiseNewTask+0x154>)
 8057f1a:	4798      	blx	r3
 8057f1c:	6bbb      	ldr	r3, [r7, #56]	; 0x38
 8057f1e:	f503 732a 	add.w	r3, r3, #680	; 0x2a8
 8057f22:	4618      	mov	r0, r3
 8057f24:	4b1b      	ldr	r3, [pc, #108]	; (8057f94 <prvInitialiseNewTask+0x154>)
 8057f26:	4798      	blx	r3
 8057f28:	6bbb      	ldr	r3, [r7, #56]	; 0x38
 8057f2a:	6bba      	ldr	r2, [r7, #56]	; 0x38
 8057f2c:	f8c3 22a0 	str.w	r2, [r3, #672]	; 0x2a0
 8057f30:	6b3b      	ldr	r3, [r7, #48]	; 0x30
 8057f32:	f1c3 0210 	rsb	r2, r3, #16
 8057f36:	6bbb      	ldr	r3, [r7, #56]	; 0x38
 8057f38:	f8c3 22a8 	str.w	r2, [r3, #680]	; 0x2a8
 8057f3c:	6bbb      	ldr	r3, [r7, #56]	; 0x38
 8057f3e:	6bba      	ldr	r2, [r7, #56]	; 0x38
 8057f40:	f8c3 22b4 	str.w	r2, [r3, #692]	; 0x2b4
 8057f44:	6bbb      	ldr	r3, [r7, #56]	; 0x38
 8057f46:	1d18      	adds	r0, r3, #4
 8057f48:	6bbb      	ldr	r3, [r7, #56]	; 0x38
 8057f4a:	f8d3 22c0 	ldr.w	r2, [r3, #704]	; 0x2c0
 8057f4e:	687b      	ldr	r3, [r7, #4]
 8057f50:	6bf9      	ldr	r1, [r7, #60]	; 0x3c
 8057f52:	4c11      	ldr	r4, [pc, #68]	; (8057f98 <prvInitialiseNewTask+0x158>)
 8057f54:	47a0      	blx	r4
 8057f56:	6bbb      	ldr	r3, [r7, #56]	; 0x38
 8057f58:	f8d3 12c0 	ldr.w	r1, [r3, #704]	; 0x2c0
 8057f5c:	6bbb      	ldr	r3, [r7, #56]	; 0x38
 8057f5e:	3304      	adds	r3, #4
 8057f60:	9301      	str	r3, [sp, #4]
 8057f62:	69bb      	ldr	r3, [r7, #24]
 8057f64:	9300      	str	r3, [sp, #0]
 8057f66:	683b      	ldr	r3, [r7, #0]
 8057f68:	68fa      	ldr	r2, [r7, #12]
 8057f6a:	6978      	ldr	r0, [r7, #20]
 8057f6c:	4c0b      	ldr	r4, [pc, #44]	; (8057f9c <prvInitialiseNewTask+0x15c>)
 8057f6e:	47a0      	blx	r4
 8057f70:	4602      	mov	r2, r0
 8057f72:	6bbb      	ldr	r3, [r7, #56]	; 0x38
 8057f74:	601a      	str	r2, [r3, #0]
 8057f76:	6b7b      	ldr	r3, [r7, #52]	; 0x34
 8057f78:	2b00      	cmp	r3, #0
 8057f7a:	d002      	beq.n	8057f82 <prvInitialiseNewTask+0x142>
 8057f7c:	6b7b      	ldr	r3, [r7, #52]	; 0x34
 8057f7e:	6bba      	ldr	r2, [r7, #56]	; 0x38
 8057f80:	601a      	str	r2, [r3, #0]
 8057f82:	bf00      	nop
 8057f84:	3724      	adds	r7, #36	; 0x24
 8057f86:	46bd      	mov	sp, r7
 8057f88:	bd90      	pop	{r4, r7, pc}
 8057f8a:	bf00      	nop
 8057f8c:	080609f1 	.word	0x080609f1
 8057f90:	0805f1c7 	.word	0x0805f1c7
 8057f94:	0805c37b 	.word	0x0805c37b
 8057f98:	0805e801 	.word	0x0805e801
 8057f9c:	0805e47d 	.word	0x0805e47d

08057fa0 <prvAddNewTaskToReadyList>:
 8057fa0:	b580      	push	{r7, lr}
 8057fa2:	b084      	sub	sp, #16
 8057fa4:	af00      	add	r7, sp, #0
 8057fa6:	6078      	str	r0, [r7, #4]
 8057fa8:	4b46      	ldr	r3, [pc, #280]	; (80580c4 <prvAddNewTaskToReadyList+0x124>)
 8057faa:	4798      	blx	r3
 8057fac:	4b46      	ldr	r3, [pc, #280]	; (80580c8 <prvAddNewTaskToReadyList+0x128>)
 8057fae:	681b      	ldr	r3, [r3, #0]
 8057fb0:	3301      	adds	r3, #1
 8057fb2:	4a45      	ldr	r2, [pc, #276]	; (80580c8 <prvAddNewTaskToReadyList+0x128>)
 8057fb4:	6013      	str	r3, [r2, #0]
 8057fb6:	4b45      	ldr	r3, [pc, #276]	; (80580cc <prvAddNewTaskToReadyList+0x12c>)
 8057fb8:	681b      	ldr	r3, [r3, #0]
 8057fba:	2b00      	cmp	r3, #0
 8057fbc:	d109      	bne.n	8057fd2 <prvAddNewTaskToReadyList+0x32>
 8057fbe:	4a43      	ldr	r2, [pc, #268]	; (80580cc <prvAddNewTaskToReadyList+0x12c>)
 8057fc0:	687b      	ldr	r3, [r7, #4]
 8057fc2:	6013      	str	r3, [r2, #0]
 8057fc4:	4b40      	ldr	r3, [pc, #256]	; (80580c8 <prvAddNewTaskToReadyList+0x128>)
 8057fc6:	681b      	ldr	r3, [r3, #0]
 8057fc8:	2b01      	cmp	r3, #1
 8057fca:	d112      	bne.n	8057ff2 <prvAddNewTaskToReadyList+0x52>
 8057fcc:	f7ff fd86 	bl	8057adc <prvInitialiseTaskLists>
 8057fd0:	e00f      	b.n	8057ff2 <prvAddNewTaskToReadyList+0x52>
 8057fd2:	4b3f      	ldr	r3, [pc, #252]	; (80580d0 <prvAddNewTaskToReadyList+0x130>)
 8057fd4:	681b      	ldr	r3, [r3, #0]
 8057fd6:	2b00      	cmp	r3, #0
 8057fd8:	d10b      	bne.n	8057ff2 <prvAddNewTaskToReadyList+0x52>
 8057fda:	4b3c      	ldr	r3, [pc, #240]	; (80580cc <prvAddNewTaskToReadyList+0x12c>)
 8057fdc:	681b      	ldr	r3, [r3, #0]
 8057fde:	f8d3 22bc 	ldr.w	r2, [r3, #700]	; 0x2bc
 8057fe2:	687b      	ldr	r3, [r7, #4]
 8057fe4:	f8d3 32bc 	ldr.w	r3, [r3, #700]	; 0x2bc
 8057fe8:	429a      	cmp	r2, r3
 8057fea:	d802      	bhi.n	8057ff2 <prvAddNewTaskToReadyList+0x52>
 8057fec:	4a37      	ldr	r2, [pc, #220]	; (80580cc <prvAddNewTaskToReadyList+0x12c>)
 8057fee:	687b      	ldr	r3, [r7, #4]
 8057ff0:	6013      	str	r3, [r2, #0]
 8057ff2:	4b38      	ldr	r3, [pc, #224]	; (80580d4 <prvAddNewTaskToReadyList+0x134>)
 8057ff4:	681b      	ldr	r3, [r3, #0]
 8057ff6:	3301      	adds	r3, #1
 8057ff8:	4a36      	ldr	r2, [pc, #216]	; (80580d4 <prvAddNewTaskToReadyList+0x134>)
 8057ffa:	6013      	str	r3, [r2, #0]
 8057ffc:	4b35      	ldr	r3, [pc, #212]	; (80580d4 <prvAddNewTaskToReadyList+0x134>)
 8057ffe:	681a      	ldr	r2, [r3, #0]
 8058000:	687b      	ldr	r3, [r7, #4]
 8058002:	f8c3 22d4 	str.w	r2, [r3, #724]	; 0x2d4
 8058006:	687b      	ldr	r3, [r7, #4]
 8058008:	f8d3 22bc 	ldr.w	r2, [r3, #700]	; 0x2bc
 805800c:	4b32      	ldr	r3, [pc, #200]	; (80580d8 <prvAddNewTaskToReadyList+0x138>)
 805800e:	681b      	ldr	r3, [r3, #0]
 8058010:	429a      	cmp	r2, r3
 8058012:	d904      	bls.n	805801e <prvAddNewTaskToReadyList+0x7e>
 8058014:	687b      	ldr	r3, [r7, #4]
 8058016:	f8d3 32bc 	ldr.w	r3, [r3, #700]	; 0x2bc
 805801a:	4a2f      	ldr	r2, [pc, #188]	; (80580d8 <prvAddNewTaskToReadyList+0x138>)
 805801c:	6013      	str	r3, [r2, #0]
 805801e:	687b      	ldr	r3, [r7, #4]
 8058020:	f8d3 22bc 	ldr.w	r2, [r3, #700]	; 0x2bc
 8058024:	492d      	ldr	r1, [pc, #180]	; (80580dc <prvAddNewTaskToReadyList+0x13c>)
 8058026:	4613      	mov	r3, r2
 8058028:	009b      	lsls	r3, r3, #2
 805802a:	4413      	add	r3, r2
 805802c:	009b      	lsls	r3, r3, #2
 805802e:	440b      	add	r3, r1
 8058030:	3304      	adds	r3, #4
 8058032:	681b      	ldr	r3, [r3, #0]
 8058034:	60fb      	str	r3, [r7, #12]
 8058036:	687b      	ldr	r3, [r7, #4]
 8058038:	68fa      	ldr	r2, [r7, #12]
 805803a:	f8c3 2298 	str.w	r2, [r3, #664]	; 0x298
 805803e:	68fb      	ldr	r3, [r7, #12]
 8058040:	689a      	ldr	r2, [r3, #8]
 8058042:	687b      	ldr	r3, [r7, #4]
 8058044:	f8c3 229c 	str.w	r2, [r3, #668]	; 0x29c
 8058048:	68fb      	ldr	r3, [r7, #12]
 805804a:	689b      	ldr	r3, [r3, #8]
 805804c:	687a      	ldr	r2, [r7, #4]
 805804e:	f502 7225 	add.w	r2, r2, #660	; 0x294
 8058052:	605a      	str	r2, [r3, #4]
 8058054:	687b      	ldr	r3, [r7, #4]
 8058056:	f503 7225 	add.w	r2, r3, #660	; 0x294
 805805a:	68fb      	ldr	r3, [r7, #12]
 805805c:	609a      	str	r2, [r3, #8]
 805805e:	687b      	ldr	r3, [r7, #4]
 8058060:	f8d3 22bc 	ldr.w	r2, [r3, #700]	; 0x2bc
 8058064:	4613      	mov	r3, r2
 8058066:	009b      	lsls	r3, r3, #2
 8058068:	4413      	add	r3, r2
 805806a:	009b      	lsls	r3, r3, #2
 805806c:	4a1b      	ldr	r2, [pc, #108]	; (80580dc <prvAddNewTaskToReadyList+0x13c>)
 805806e:	441a      	add	r2, r3
 8058070:	687b      	ldr	r3, [r7, #4]
 8058072:	f8c3 22a4 	str.w	r2, [r3, #676]	; 0x2a4
 8058076:	687b      	ldr	r3, [r7, #4]
 8058078:	f8d3 22bc 	ldr.w	r2, [r3, #700]	; 0x2bc
 805807c:	4917      	ldr	r1, [pc, #92]	; (80580dc <prvAddNewTaskToReadyList+0x13c>)
 805807e:	4613      	mov	r3, r2
 8058080:	009b      	lsls	r3, r3, #2
 8058082:	4413      	add	r3, r2
 8058084:	009b      	lsls	r3, r3, #2
 8058086:	440b      	add	r3, r1
 8058088:	681b      	ldr	r3, [r3, #0]
 805808a:	1c59      	adds	r1, r3, #1
 805808c:	4813      	ldr	r0, [pc, #76]	; (80580dc <prvAddNewTaskToReadyList+0x13c>)
 805808e:	4613      	mov	r3, r2
 8058090:	009b      	lsls	r3, r3, #2
 8058092:	4413      	add	r3, r2
 8058094:	009b      	lsls	r3, r3, #2
 8058096:	4403      	add	r3, r0
 8058098:	6019      	str	r1, [r3, #0]
 805809a:	4b11      	ldr	r3, [pc, #68]	; (80580e0 <prvAddNewTaskToReadyList+0x140>)
 805809c:	4798      	blx	r3
 805809e:	4b0c      	ldr	r3, [pc, #48]	; (80580d0 <prvAddNewTaskToReadyList+0x130>)
 80580a0:	681b      	ldr	r3, [r3, #0]
 80580a2:	2b00      	cmp	r3, #0
 80580a4:	d00a      	beq.n	80580bc <prvAddNewTaskToReadyList+0x11c>
 80580a6:	4b09      	ldr	r3, [pc, #36]	; (80580cc <prvAddNewTaskToReadyList+0x12c>)
 80580a8:	681b      	ldr	r3, [r3, #0]
 80580aa:	f8d3 22bc 	ldr.w	r2, [r3, #700]	; 0x2bc
 80580ae:	687b      	ldr	r3, [r7, #4]
 80580b0:	f8d3 32bc 	ldr.w	r3, [r3, #700]	; 0x2bc
 80580b4:	429a      	cmp	r2, r3
 80580b6:	d201      	bcs.n	80580bc <prvAddNewTaskToReadyList+0x11c>
 80580b8:	4b0a      	ldr	r3, [pc, #40]	; (80580e4 <prvAddNewTaskToReadyList+0x144>)
 80580ba:	4798      	blx	r3
 80580bc:	bf00      	nop
 80580be:	3710      	adds	r7, #16
 80580c0:	46bd      	mov	sp, r7
 80580c2:	bd80      	pop	{r7, pc}
 80580c4:	0805ecc5 	.word	0x0805ecc5
 80580c8:	200002b4 	.word	0x200002b4
 80580cc:	20000100 	.word	0x20000100
 80580d0:	200002c0 	.word	0x200002c0
 80580d4:	200002d0 	.word	0x200002d0
 80580d8:	200002bc 	.word	0x200002bc
 80580dc:	20000104 	.word	0x20000104
 80580e0:	0805eced 	.word	0x0805eced
 80580e4:	0805eca5 	.word	0x0805eca5

080580e8 <prvCreateRestrictedTask>:
 80580e8:	b5b0      	push	{r4, r5, r7, lr}
 80580ea:	b088      	sub	sp, #32
 80580ec:	af04      	add	r7, sp, #16
 80580ee:	6078      	str	r0, [r7, #4]
 80580f0:	6039      	str	r1, [r7, #0]
 80580f2:	687b      	ldr	r3, [r7, #4]
 80580f4:	695b      	ldr	r3, [r3, #20]
 80580f6:	2b00      	cmp	r3, #0
 80580f8:	d102      	bne.n	8058100 <prvCreateRestrictedTask+0x18>
 80580fa:	4b1e      	ldr	r3, [pc, #120]	; (8058174 <prvCreateRestrictedTask+0x8c>)
 80580fc:	4798      	blx	r3
 80580fe:	e7fe      	b.n	80580fe <prvCreateRestrictedTask+0x16>
 8058100:	687b      	ldr	r3, [r7, #4]
 8058102:	695b      	ldr	r3, [r3, #20]
 8058104:	2b00      	cmp	r3, #0
 8058106:	d02e      	beq.n	8058166 <prvCreateRestrictedTask+0x7e>
 8058108:	f44f 703b 	mov.w	r0, #748	; 0x2ec
 805810c:	4b1a      	ldr	r3, [pc, #104]	; (8058178 <prvCreateRestrictedTask+0x90>)
 805810e:	4798      	blx	r3
 8058110:	60f8      	str	r0, [r7, #12]
 8058112:	68fb      	ldr	r3, [r7, #12]
 8058114:	2b00      	cmp	r3, #0
 8058116:	d028      	beq.n	805816a <prvCreateRestrictedTask+0x82>
 8058118:	f44f 723b 	mov.w	r2, #748	; 0x2ec
 805811c:	2100      	movs	r1, #0
 805811e:	68f8      	ldr	r0, [r7, #12]
 8058120:	4b16      	ldr	r3, [pc, #88]	; (805817c <prvCreateRestrictedTask+0x94>)
 8058122:	4798      	blx	r3
 8058124:	687b      	ldr	r3, [r7, #4]
 8058126:	695a      	ldr	r2, [r3, #20]
 8058128:	68fb      	ldr	r3, [r7, #12]
 805812a:	f8c3 22c0 	str.w	r2, [r3, #704]	; 0x2c0
 805812e:	68fb      	ldr	r3, [r7, #12]
 8058130:	2201      	movs	r2, #1
 8058132:	f883 22e9 	strb.w	r2, [r3, #745]	; 0x2e9
 8058136:	687b      	ldr	r3, [r7, #4]
 8058138:	6818      	ldr	r0, [r3, #0]
 805813a:	687b      	ldr	r3, [r7, #4]
 805813c:	6859      	ldr	r1, [r3, #4]
 805813e:	687b      	ldr	r3, [r7, #4]
 8058140:	891b      	ldrh	r3, [r3, #8]
 8058142:	461d      	mov	r5, r3
 8058144:	687b      	ldr	r3, [r7, #4]
 8058146:	68dc      	ldr	r4, [r3, #12]
 8058148:	687b      	ldr	r3, [r7, #4]
 805814a:	691b      	ldr	r3, [r3, #16]
 805814c:	687a      	ldr	r2, [r7, #4]
 805814e:	3218      	adds	r2, #24
 8058150:	9203      	str	r2, [sp, #12]
 8058152:	68fa      	ldr	r2, [r7, #12]
 8058154:	9202      	str	r2, [sp, #8]
 8058156:	683a      	ldr	r2, [r7, #0]
 8058158:	9201      	str	r2, [sp, #4]
 805815a:	9300      	str	r3, [sp, #0]
 805815c:	4623      	mov	r3, r4
 805815e:	462a      	mov	r2, r5
 8058160:	f7ff fe6e 	bl	8057e40 <prvInitialiseNewTask>
 8058164:	e001      	b.n	805816a <prvCreateRestrictedTask+0x82>
 8058166:	2300      	movs	r3, #0
 8058168:	60fb      	str	r3, [r7, #12]
 805816a:	68fb      	ldr	r3, [r7, #12]
 805816c:	4618      	mov	r0, r3
 805816e:	3710      	adds	r7, #16
 8058170:	46bd      	mov	sp, r7
 8058172:	bdb0      	pop	{r4, r5, r7, pc}
 8058174:	0805f1c7 	.word	0x0805f1c7
 8058178:	0805b839 	.word	0x0805b839
 805817c:	080609f1 	.word	0x080609f1

08058180 <prvCreateTask>:
 8058180:	b580      	push	{r7, lr}
 8058182:	b08a      	sub	sp, #40	; 0x28
 8058184:	af04      	add	r7, sp, #16
 8058186:	60f8      	str	r0, [r7, #12]
 8058188:	60b9      	str	r1, [r7, #8]
 805818a:	603b      	str	r3, [r7, #0]
 805818c:	4613      	mov	r3, r2
 805818e:	80fb      	strh	r3, [r7, #6]
 8058190:	88fb      	ldrh	r3, [r7, #6]
 8058192:	009b      	lsls	r3, r3, #2
 8058194:	4618      	mov	r0, r3
 8058196:	4b1c      	ldr	r3, [pc, #112]	; (8058208 <prvCreateTask+0x88>)
 8058198:	4798      	blx	r3
 805819a:	6138      	str	r0, [r7, #16]
 805819c:	693b      	ldr	r3, [r7, #16]
 805819e:	2b00      	cmp	r3, #0
 80581a0:	d016      	beq.n	80581d0 <prvCreateTask+0x50>
 80581a2:	f44f 703b 	mov.w	r0, #748	; 0x2ec
 80581a6:	4b18      	ldr	r3, [pc, #96]	; (8058208 <prvCreateTask+0x88>)
 80581a8:	4798      	blx	r3
 80581aa:	6178      	str	r0, [r7, #20]
 80581ac:	697b      	ldr	r3, [r7, #20]
 80581ae:	2b00      	cmp	r3, #0
 80581b0:	d00a      	beq.n	80581c8 <prvCreateTask+0x48>
 80581b2:	f44f 723b 	mov.w	r2, #748	; 0x2ec
 80581b6:	2100      	movs	r1, #0
 80581b8:	6978      	ldr	r0, [r7, #20]
 80581ba:	4b14      	ldr	r3, [pc, #80]	; (805820c <prvCreateTask+0x8c>)
 80581bc:	4798      	blx	r3
 80581be:	697b      	ldr	r3, [r7, #20]
 80581c0:	693a      	ldr	r2, [r7, #16]
 80581c2:	f8c3 22c0 	str.w	r2, [r3, #704]	; 0x2c0
 80581c6:	e005      	b.n	80581d4 <prvCreateTask+0x54>
 80581c8:	6938      	ldr	r0, [r7, #16]
 80581ca:	4b11      	ldr	r3, [pc, #68]	; (8058210 <prvCreateTask+0x90>)
 80581cc:	4798      	blx	r3
 80581ce:	e001      	b.n	80581d4 <prvCreateTask+0x54>
 80581d0:	2300      	movs	r3, #0
 80581d2:	617b      	str	r3, [r7, #20]
 80581d4:	697b      	ldr	r3, [r7, #20]
 80581d6:	2b00      	cmp	r3, #0
 80581d8:	d011      	beq.n	80581fe <prvCreateTask+0x7e>
 80581da:	697b      	ldr	r3, [r7, #20]
 80581dc:	2200      	movs	r2, #0
 80581de:	f883 22e9 	strb.w	r2, [r3, #745]	; 0x2e9
 80581e2:	88fa      	ldrh	r2, [r7, #6]
 80581e4:	2300      	movs	r3, #0
 80581e6:	9303      	str	r3, [sp, #12]
 80581e8:	697b      	ldr	r3, [r7, #20]
 80581ea:	9302      	str	r3, [sp, #8]
 80581ec:	6a7b      	ldr	r3, [r7, #36]	; 0x24
 80581ee:	9301      	str	r3, [sp, #4]
 80581f0:	6a3b      	ldr	r3, [r7, #32]
 80581f2:	9300      	str	r3, [sp, #0]
 80581f4:	683b      	ldr	r3, [r7, #0]
 80581f6:	68b9      	ldr	r1, [r7, #8]
 80581f8:	68f8      	ldr	r0, [r7, #12]
 80581fa:	f7ff fe21 	bl	8057e40 <prvInitialiseNewTask>
 80581fe:	697b      	ldr	r3, [r7, #20]
 8058200:	4618      	mov	r0, r3
 8058202:	3718      	adds	r7, #24
 8058204:	46bd      	mov	sp, r7
 8058206:	bd80      	pop	{r7, pc}
 8058208:	0805b839 	.word	0x0805b839
 805820c:	080609f1 	.word	0x080609f1
 8058210:	0805baa1 	.word	0x0805baa1

08058214 <xTimerCreate>:
 8058214:	b580      	push	{r7, lr}
 8058216:	b088      	sub	sp, #32
 8058218:	af02      	add	r7, sp, #8
 805821a:	60f8      	str	r0, [r7, #12]
 805821c:	60b9      	str	r1, [r7, #8]
 805821e:	607a      	str	r2, [r7, #4]
 8058220:	603b      	str	r3, [r7, #0]
 8058222:	202c      	movs	r0, #44	; 0x2c
 8058224:	4b0c      	ldr	r3, [pc, #48]	; (8058258 <xTimerCreate+0x44>)
 8058226:	4798      	blx	r3
 8058228:	6178      	str	r0, [r7, #20]
 805822a:	697b      	ldr	r3, [r7, #20]
 805822c:	2b00      	cmp	r3, #0
 805822e:	d00d      	beq.n	805824c <xTimerCreate+0x38>
 8058230:	697b      	ldr	r3, [r7, #20]
 8058232:	2200      	movs	r2, #0
 8058234:	f883 2028 	strb.w	r2, [r3, #40]	; 0x28
 8058238:	697b      	ldr	r3, [r7, #20]
 805823a:	9301      	str	r3, [sp, #4]
 805823c:	6a3b      	ldr	r3, [r7, #32]
 805823e:	9300      	str	r3, [sp, #0]
 8058240:	683b      	ldr	r3, [r7, #0]
 8058242:	687a      	ldr	r2, [r7, #4]
 8058244:	68b9      	ldr	r1, [r7, #8]
 8058246:	68f8      	ldr	r0, [r7, #12]
 8058248:	f000 fcb0 	bl	8058bac <prvInitialiseNewTimer>
 805824c:	697b      	ldr	r3, [r7, #20]
 805824e:	4618      	mov	r0, r3
 8058250:	3718      	adds	r7, #24
 8058252:	46bd      	mov	sp, r7
 8058254:	bd80      	pop	{r7, pc}
 8058256:	bf00      	nop
 8058258:	0805b839 	.word	0x0805b839

0805825c <pvTimerGetTimerID>:
 805825c:	b580      	push	{r7, lr}
 805825e:	b084      	sub	sp, #16
 8058260:	af00      	add	r7, sp, #0
 8058262:	6078      	str	r0, [r7, #4]
 8058264:	687b      	ldr	r3, [r7, #4]
 8058266:	60fb      	str	r3, [r7, #12]
 8058268:	687b      	ldr	r3, [r7, #4]
 805826a:	2b00      	cmp	r3, #0
 805826c:	d102      	bne.n	8058274 <pvTimerGetTimerID+0x18>
 805826e:	4b07      	ldr	r3, [pc, #28]	; (805828c <pvTimerGetTimerID+0x30>)
 8058270:	4798      	blx	r3
 8058272:	e7fe      	b.n	8058272 <pvTimerGetTimerID+0x16>
 8058274:	4b06      	ldr	r3, [pc, #24]	; (8058290 <pvTimerGetTimerID+0x34>)
 8058276:	4798      	blx	r3
 8058278:	68fb      	ldr	r3, [r7, #12]
 805827a:	69db      	ldr	r3, [r3, #28]
 805827c:	60bb      	str	r3, [r7, #8]
 805827e:	4b05      	ldr	r3, [pc, #20]	; (8058294 <pvTimerGetTimerID+0x38>)
 8058280:	4798      	blx	r3
 8058282:	68bb      	ldr	r3, [r7, #8]
 8058284:	4618      	mov	r0, r3
 8058286:	3710      	adds	r7, #16
 8058288:	46bd      	mov	sp, r7
 805828a:	bd80      	pop	{r7, pc}
 805828c:	0805f1c7 	.word	0x0805f1c7
 8058290:	0805ecc5 	.word	0x0805ecc5
 8058294:	0805eced 	.word	0x0805eced

08058298 <vTimerSetTimerID>:
 8058298:	b580      	push	{r7, lr}
 805829a:	b084      	sub	sp, #16
 805829c:	af00      	add	r7, sp, #0
 805829e:	6078      	str	r0, [r7, #4]
 80582a0:	6039      	str	r1, [r7, #0]
 80582a2:	687b      	ldr	r3, [r7, #4]
 80582a4:	60fb      	str	r3, [r7, #12]
 80582a6:	687b      	ldr	r3, [r7, #4]
 80582a8:	2b00      	cmp	r3, #0
 80582aa:	d102      	bne.n	80582b2 <vTimerSetTimerID+0x1a>
 80582ac:	4b06      	ldr	r3, [pc, #24]	; (80582c8 <vTimerSetTimerID+0x30>)
 80582ae:	4798      	blx	r3
 80582b0:	e7fe      	b.n	80582b0 <vTimerSetTimerID+0x18>
 80582b2:	4b06      	ldr	r3, [pc, #24]	; (80582cc <vTimerSetTimerID+0x34>)
 80582b4:	4798      	blx	r3
 80582b6:	68fb      	ldr	r3, [r7, #12]
 80582b8:	683a      	ldr	r2, [r7, #0]
 80582ba:	61da      	str	r2, [r3, #28]
 80582bc:	4b04      	ldr	r3, [pc, #16]	; (80582d0 <vTimerSetTimerID+0x38>)
 80582be:	4798      	blx	r3
 80582c0:	bf00      	nop
 80582c2:	3710      	adds	r7, #16
 80582c4:	46bd      	mov	sp, r7
 80582c6:	bd80      	pop	{r7, pc}
 80582c8:	0805f1c7 	.word	0x0805f1c7
 80582cc:	0805ecc5 	.word	0x0805ecc5
 80582d0:	0805eced 	.word	0x0805eced

080582d4 <xTimerIsTimerActive>:
 80582d4:	b580      	push	{r7, lr}
 80582d6:	b084      	sub	sp, #16
 80582d8:	af00      	add	r7, sp, #0
 80582da:	6078      	str	r0, [r7, #4]
 80582dc:	687b      	ldr	r3, [r7, #4]
 80582de:	60bb      	str	r3, [r7, #8]
 80582e0:	687b      	ldr	r3, [r7, #4]
 80582e2:	2b00      	cmp	r3, #0
 80582e4:	d102      	bne.n	80582ec <xTimerIsTimerActive+0x18>
 80582e6:	4b0c      	ldr	r3, [pc, #48]	; (8058318 <xTimerIsTimerActive+0x44>)
 80582e8:	4798      	blx	r3
 80582ea:	e7fe      	b.n	80582ea <xTimerIsTimerActive+0x16>
 80582ec:	4b0b      	ldr	r3, [pc, #44]	; (805831c <xTimerIsTimerActive+0x48>)
 80582ee:	4798      	blx	r3
 80582f0:	68bb      	ldr	r3, [r7, #8]
 80582f2:	f893 3028 	ldrb.w	r3, [r3, #40]	; 0x28
 80582f6:	f003 0301 	and.w	r3, r3, #1
 80582fa:	2b00      	cmp	r3, #0
 80582fc:	d102      	bne.n	8058304 <xTimerIsTimerActive+0x30>
 80582fe:	2300      	movs	r3, #0
 8058300:	60fb      	str	r3, [r7, #12]
 8058302:	e001      	b.n	8058308 <xTimerIsTimerActive+0x34>
 8058304:	2301      	movs	r3, #1
 8058306:	60fb      	str	r3, [r7, #12]
 8058308:	4b05      	ldr	r3, [pc, #20]	; (8058320 <xTimerIsTimerActive+0x4c>)
 805830a:	4798      	blx	r3
 805830c:	68fb      	ldr	r3, [r7, #12]
 805830e:	4618      	mov	r0, r3
 8058310:	3710      	adds	r7, #16
 8058312:	46bd      	mov	sp, r7
 8058314:	bd80      	pop	{r7, pc}
 8058316:	bf00      	nop
 8058318:	0805f1c7 	.word	0x0805f1c7
 805831c:	0805ecc5 	.word	0x0805ecc5
 8058320:	0805eced 	.word	0x0805eced

08058324 <xTimerGetTimerDaemonTaskHandle>:
 8058324:	b580      	push	{r7, lr}
 8058326:	af00      	add	r7, sp, #0
 8058328:	4b05      	ldr	r3, [pc, #20]	; (8058340 <xTimerGetTimerDaemonTaskHandle+0x1c>)
 805832a:	681b      	ldr	r3, [r3, #0]
 805832c:	2b00      	cmp	r3, #0
 805832e:	d102      	bne.n	8058336 <xTimerGetTimerDaemonTaskHandle+0x12>
 8058330:	4b04      	ldr	r3, [pc, #16]	; (8058344 <xTimerGetTimerDaemonTaskHandle+0x20>)
 8058332:	4798      	blx	r3
 8058334:	e7fe      	b.n	8058334 <xTimerGetTimerDaemonTaskHandle+0x10>
 8058336:	4b02      	ldr	r3, [pc, #8]	; (8058340 <xTimerGetTimerDaemonTaskHandle+0x1c>)
 8058338:	681b      	ldr	r3, [r3, #0]
 805833a:	4618      	mov	r0, r3
 805833c:	bd80      	pop	{r7, pc}
 805833e:	bf00      	nop
 8058340:	20000314 	.word	0x20000314
 8058344:	0805f1c7 	.word	0x0805f1c7

08058348 <xTimerPendFunctionCallFromISR>:
 8058348:	b590      	push	{r4, r7, lr}
 805834a:	b08b      	sub	sp, #44	; 0x2c
 805834c:	af00      	add	r7, sp, #0
 805834e:	60f8      	str	r0, [r7, #12]
 8058350:	60b9      	str	r1, [r7, #8]
 8058352:	607a      	str	r2, [r7, #4]
 8058354:	603b      	str	r3, [r7, #0]
 8058356:	f06f 0301 	mvn.w	r3, #1
 805835a:	617b      	str	r3, [r7, #20]
 805835c:	68fb      	ldr	r3, [r7, #12]
 805835e:	61bb      	str	r3, [r7, #24]
 8058360:	68bb      	ldr	r3, [r7, #8]
 8058362:	61fb      	str	r3, [r7, #28]
 8058364:	687b      	ldr	r3, [r7, #4]
 8058366:	623b      	str	r3, [r7, #32]
 8058368:	4b06      	ldr	r3, [pc, #24]	; (8058384 <xTimerPendFunctionCallFromISR+0x3c>)
 805836a:	6818      	ldr	r0, [r3, #0]
 805836c:	f107 0114 	add.w	r1, r7, #20
 8058370:	2300      	movs	r3, #0
 8058372:	683a      	ldr	r2, [r7, #0]
 8058374:	4c04      	ldr	r4, [pc, #16]	; (8058388 <xTimerPendFunctionCallFromISR+0x40>)
 8058376:	47a0      	blx	r4
 8058378:	6278      	str	r0, [r7, #36]	; 0x24
 805837a:	6a7b      	ldr	r3, [r7, #36]	; 0x24
 805837c:	4618      	mov	r0, r3
 805837e:	372c      	adds	r7, #44	; 0x2c
 8058380:	46bd      	mov	sp, r7
 8058382:	bd90      	pop	{r4, r7, pc}
 8058384:	20000310 	.word	0x20000310
 8058388:	0805cae5 	.word	0x0805cae5

0805838c <xTimerPendFunctionCall>:
 805838c:	b590      	push	{r4, r7, lr}
 805838e:	b08b      	sub	sp, #44	; 0x2c
 8058390:	af00      	add	r7, sp, #0
 8058392:	60f8      	str	r0, [r7, #12]
 8058394:	60b9      	str	r1, [r7, #8]
 8058396:	607a      	str	r2, [r7, #4]
 8058398:	603b      	str	r3, [r7, #0]
 805839a:	4b0f      	ldr	r3, [pc, #60]	; (80583d8 <xTimerPendFunctionCall+0x4c>)
 805839c:	681b      	ldr	r3, [r3, #0]
 805839e:	2b00      	cmp	r3, #0
 80583a0:	d102      	bne.n	80583a8 <xTimerPendFunctionCall+0x1c>
 80583a2:	4b0e      	ldr	r3, [pc, #56]	; (80583dc <xTimerPendFunctionCall+0x50>)
 80583a4:	4798      	blx	r3
 80583a6:	e7fe      	b.n	80583a6 <xTimerPendFunctionCall+0x1a>
 80583a8:	f04f 33ff 	mov.w	r3, #4294967295	; 0xffffffff
 80583ac:	617b      	str	r3, [r7, #20]
 80583ae:	68fb      	ldr	r3, [r7, #12]
 80583b0:	61bb      	str	r3, [r7, #24]
 80583b2:	68bb      	ldr	r3, [r7, #8]
 80583b4:	61fb      	str	r3, [r7, #28]
 80583b6:	687b      	ldr	r3, [r7, #4]
 80583b8:	623b      	str	r3, [r7, #32]
 80583ba:	4b07      	ldr	r3, [pc, #28]	; (80583d8 <xTimerPendFunctionCall+0x4c>)
 80583bc:	6818      	ldr	r0, [r3, #0]
 80583be:	f107 0114 	add.w	r1, r7, #20
 80583c2:	2300      	movs	r3, #0
 80583c4:	683a      	ldr	r2, [r7, #0]
 80583c6:	4c06      	ldr	r4, [pc, #24]	; (80583e0 <xTimerPendFunctionCall+0x54>)
 80583c8:	47a0      	blx	r4
 80583ca:	6278      	str	r0, [r7, #36]	; 0x24
 80583cc:	6a7b      	ldr	r3, [r7, #36]	; 0x24
 80583ce:	4618      	mov	r0, r3
 80583d0:	372c      	adds	r7, #44	; 0x2c
 80583d2:	46bd      	mov	sp, r7
 80583d4:	bd90      	pop	{r4, r7, pc}
 80583d6:	bf00      	nop
 80583d8:	20000310 	.word	0x20000310
 80583dc:	0805f1c7 	.word	0x0805f1c7
 80583e0:	0805c49d 	.word	0x0805c49d

080583e4 <pcTimerGetName>:
 80583e4:	b580      	push	{r7, lr}
 80583e6:	b084      	sub	sp, #16
 80583e8:	af00      	add	r7, sp, #0
 80583ea:	6078      	str	r0, [r7, #4]
 80583ec:	687b      	ldr	r3, [r7, #4]
 80583ee:	60fb      	str	r3, [r7, #12]
 80583f0:	687b      	ldr	r3, [r7, #4]
 80583f2:	2b00      	cmp	r3, #0
 80583f4:	d102      	bne.n	80583fc <pcTimerGetName+0x18>
 80583f6:	4b04      	ldr	r3, [pc, #16]	; (8058408 <pcTimerGetName+0x24>)
 80583f8:	4798      	blx	r3
 80583fa:	e7fe      	b.n	80583fa <pcTimerGetName+0x16>
 80583fc:	68fb      	ldr	r3, [r7, #12]
 80583fe:	681b      	ldr	r3, [r3, #0]
 8058400:	4618      	mov	r0, r3
 8058402:	3710      	adds	r7, #16
 8058404:	46bd      	mov	sp, r7
 8058406:	bd80      	pop	{r7, pc}
 8058408:	0805f1c7 	.word	0x0805f1c7

0805840c <vTimerSetReloadMode>:
 805840c:	b580      	push	{r7, lr}
 805840e:	b084      	sub	sp, #16
 8058410:	af00      	add	r7, sp, #0
 8058412:	6078      	str	r0, [r7, #4]
 8058414:	6039      	str	r1, [r7, #0]
 8058416:	687b      	ldr	r3, [r7, #4]
 8058418:	60fb      	str	r3, [r7, #12]
 805841a:	687b      	ldr	r3, [r7, #4]
 805841c:	2b00      	cmp	r3, #0
 805841e:	d102      	bne.n	8058426 <vTimerSetReloadMode+0x1a>
 8058420:	4b10      	ldr	r3, [pc, #64]	; (8058464 <vTimerSetReloadMode+0x58>)
 8058422:	4798      	blx	r3
 8058424:	e7fe      	b.n	8058424 <vTimerSetReloadMode+0x18>
 8058426:	4b10      	ldr	r3, [pc, #64]	; (8058468 <vTimerSetReloadMode+0x5c>)
 8058428:	4798      	blx	r3
 805842a:	683b      	ldr	r3, [r7, #0]
 805842c:	2b00      	cmp	r3, #0
 805842e:	d009      	beq.n	8058444 <vTimerSetReloadMode+0x38>
 8058430:	68fb      	ldr	r3, [r7, #12]
 8058432:	f893 3028 	ldrb.w	r3, [r3, #40]	; 0x28
 8058436:	f043 0304 	orr.w	r3, r3, #4
 805843a:	b2da      	uxtb	r2, r3
 805843c:	68fb      	ldr	r3, [r7, #12]
 805843e:	f883 2028 	strb.w	r2, [r3, #40]	; 0x28
 8058442:	e008      	b.n	8058456 <vTimerSetReloadMode+0x4a>
 8058444:	68fb      	ldr	r3, [r7, #12]
 8058446:	f893 3028 	ldrb.w	r3, [r3, #40]	; 0x28
 805844a:	f023 0304 	bic.w	r3, r3, #4
 805844e:	b2da      	uxtb	r2, r3
 8058450:	68fb      	ldr	r3, [r7, #12]
 8058452:	f883 2028 	strb.w	r2, [r3, #40]	; 0x28
 8058456:	4b05      	ldr	r3, [pc, #20]	; (805846c <vTimerSetReloadMode+0x60>)
 8058458:	4798      	blx	r3
 805845a:	bf00      	nop
 805845c:	3710      	adds	r7, #16
 805845e:	46bd      	mov	sp, r7
 8058460:	bd80      	pop	{r7, pc}
 8058462:	bf00      	nop
 8058464:	0805f1c7 	.word	0x0805f1c7
 8058468:	0805ecc5 	.word	0x0805ecc5
 805846c:	0805eced 	.word	0x0805eced

08058470 <xTimerGetReloadMode>:
 8058470:	b580      	push	{r7, lr}
 8058472:	b084      	sub	sp, #16
 8058474:	af00      	add	r7, sp, #0
 8058476:	6078      	str	r0, [r7, #4]
 8058478:	687b      	ldr	r3, [r7, #4]
 805847a:	60bb      	str	r3, [r7, #8]
 805847c:	687b      	ldr	r3, [r7, #4]
 805847e:	2b00      	cmp	r3, #0
 8058480:	d102      	bne.n	8058488 <xTimerGetReloadMode+0x18>
 8058482:	4b0c      	ldr	r3, [pc, #48]	; (80584b4 <xTimerGetReloadMode+0x44>)
 8058484:	4798      	blx	r3
